Component: ARM Compiler 6.13.1 Tool: armlink [5d895400]

==============================================================================

Section Cross References

    pstring.o(.ARM.exidx.text._ZN7PStringC2Ev) refers to pstring.o(.text._ZN7PStringC2Ev) for [Anonymous Symbol]
    pstring.o(.text._ZN7PStringC2ERKNSt3__112basic_stringIcNS0_11char_traitsIcEENS0_9allocatorIcEEEE) refers to string.cpp.o(.text._ZNSt3__112basic_stringIcNS_11char_traitsIcEENS_9allocatorIcEEEC2ERKS5_) for std::__1::basic_string<char, std::__1::char_traits<char>, std::__1::allocator<char>>::basic_string__sub_object(const std::__1::basic_string<char, std::__1::char_traits<char>, std::__1::allocator<char>>&)
    pstring.o(.ARM.exidx.text._ZN7PStringC2ERKNSt3__112basic_stringIcNS0_11char_traitsIcEENS0_9allocatorIcEEEE) refers to pstring.o(.text._ZN7PStringC2ERKNSt3__112basic_stringIcNS0_11char_traitsIcEENS0_9allocatorIcEEEE) for [Anonymous Symbol]
    pstring.o(.text._ZN7PStringC2EPKc) refers to strlen.o(.text) for strlen
    pstring.o(.text._ZN7PStringC2EPKc) refers to string.cpp.o(.text._ZNSt3__112basic_stringIcNS_11char_traitsIcEENS_9allocatorIcEEE6__initEPKcj) for std::__1::basic_string<char, std::__1::char_traits<char>, std::__1::allocator<char>>::__init(const char*, unsigned)
    pstring.o(.ARM.exidx.text._ZN7PStringC2EPKc) refers to pstring.o(.text._ZN7PStringC2EPKc) for [Anonymous Symbol]
    pstring.o(.text._ZN7PStringC2ERNSt3__112basic_stringIcNS0_11char_traitsIcEENS0_9allocatorIcEEEE) refers to string.cpp.o(.text._ZNSt3__112basic_stringIcNS_11char_traitsIcEENS_9allocatorIcEEEC2ERKS5_) for std::__1::basic_string<char, std::__1::char_traits<char>, std::__1::allocator<char>>::basic_string__sub_object(const std::__1::basic_string<char, std::__1::char_traits<char>, std::__1::allocator<char>>&)
    pstring.o(.ARM.exidx.text._ZN7PStringC2ERNSt3__112basic_stringIcNS0_11char_traitsIcEENS0_9allocatorIcEEEE) refers to pstring.o(.text._ZN7PStringC2ERNSt3__112basic_stringIcNS0_11char_traitsIcEENS0_9allocatorIcEEEE) for [Anonymous Symbol]
    pstring.o(.text._ZN7PString20findDataAfterAcronimEc) refers to string.cpp.o(.text._ZNKSt3__112basic_stringIcNS_11char_traitsIcEENS_9allocatorIcEEE4findEcj) for std::__1::basic_string<char, std::__1::char_traits<char>, std::__1::allocator<char>>::find(char, unsigned) const
    pstring.o(.text._ZN7PString20findDataAfterAcronimEc) refers to string.cpp.o(.text._ZNSt3__112basic_stringIcNS_11char_traitsIcEENS_9allocatorIcEEE2atEj) for std::__1::basic_string<char, std::__1::char_traits<char>, std::__1::allocator<char>>::at(unsigned)
    pstring.o(.text._ZN7PString20findDataAfterAcronimEc) refers to string.cpp.o(.text._ZNSt3__112basic_stringIcNS_11char_traitsIcEENS_9allocatorIcEEE9push_backEc) for std::__1::basic_string<char, std::__1::char_traits<char>, std::__1::allocator<char>>::push_back(char)
    pstring.o(.ARM.exidx.text._ZN7PString20findDataAfterAcronimEc) refers to pstring.o(.text._ZN7PString20findDataAfterAcronimEc) for [Anonymous Symbol]
    pstring.o(.text._ZN7PString21findValueAfterAcronimEcd) refers to pstring.o(.text._ZN7PString20findDataAfterAcronimEc) for PString::findDataAfterAcronim(char)
    pstring.o(.text._ZN7PString21findValueAfterAcronimEcd) refers to atof.o(i.atof) for atof
    pstring.o(.text._ZN7PString21findValueAfterAcronimEcd) refers to string.cpp.o(.text._ZNSt3__112basic_stringIcNS_11char_traitsIcEENS_9allocatorIcEEED2Ev) for std::__1::basic_string<char, std::__1::char_traits<char>, std::__1::allocator<char>>::~basic_string__sub_object()
    pstring.o(.ARM.exidx.text._ZN7PString21findValueAfterAcronimEcd) refers to pstring.o(.text._ZN7PString21findValueAfterAcronimEcd) for [Anonymous Symbol]
    pstring.o(.text._ZN7PString23findValuesAfterAcronimsEv) refers to pstring.o(.text._ZN7PString20findDataAfterAcronimEc) for PString::findDataAfterAcronim(char)
    pstring.o(.text._ZN7PString23findValuesAfterAcronimsEv) refers to memoryleakwarningplugin.o(.text._ZdlPv) for operator delete (void*)
    pstring.o(.text._ZN7PString23findValuesAfterAcronimsEv) refers to string.cpp.o(.text._ZNSt3__112basic_stringIcNS_11char_traitsIcEENS_9allocatorIcEEED2Ev) for std::__1::basic_string<char, std::__1::char_traits<char>, std::__1::allocator<char>>::~basic_string__sub_object()
    pstring.o(.text._ZN7PString23findValuesAfterAcronimsEv) refers to atof.o(i.atof) for atof
    pstring.o(.text._ZN7PString23findValuesAfterAcronimsEv) refers to pstring.o(.text._ZNSt3__16__treeINS_12__value_typeIcdEENS_19__map_value_compareIcS2_NS_4lessIcEELb1EEENS_9allocatorIS2_EEE25__emplace_unique_key_argsIcJNS_4pairIcdEEEEENSB_INS_15__tree_iteratorIS2_PNS_11__tree_nodeIS2_PvEEiEEbEERKT_DpOT0_) for std::__1::pair<std::__1::__tree_iterator<std::__1::__value_type<char, double>, std::__1::__tree_node<std::__1::__value_type<char, double>, void*>*, int>, bool> std::__1::__tree<std::__1::__value_type<char, double>, std::__1::__map_value_compare<char, std::__1::__value_type<char, double>, std::__1::less<char>, (bool)1>, std::__1::allocator<std::__1::__value_type<char, double>>>::__emplace_unique_key_args<char, <std::__1::pair<char, double>>>(const T1&, T2&&...)
    pstring.o(.ARM.exidx.text._ZN7PString23findValuesAfterAcronimsEv) refers to pstring.o(.text._ZN7PString23findValuesAfterAcronimsEv) for [Anonymous Symbol]
    pstring.o(.text._ZN7PString5splitEc) refers to string.cpp.o(.text._ZNSt3__112basic_stringIcNS_11char_traitsIcEENS_9allocatorIcEEE2atEj) for std::__1::basic_string<char, std::__1::char_traits<char>, std::__1::allocator<char>>::at(unsigned)
    pstring.o(.text._ZN7PString5splitEc) refers to string.cpp.o(.text._ZNSt3__112basic_stringIcNS_11char_traitsIcEENS_9allocatorIcEEEC2ERKS5_) for std::__1::basic_string<char, std::__1::char_traits<char>, std::__1::allocator<char>>::basic_string(const std::__1::basic_string<char, std::__1::char_traits<char>, std::__1::allocator<char>>&)
    pstring.o(.text._ZN7PString5splitEc) refers to string.cpp.o(.text._ZNSt3__112basic_stringIcNS_11char_traitsIcEENS_9allocatorIcEEE9push_backEc) for std::__1::basic_string<char, std::__1::char_traits<char>, std::__1::allocator<char>>::push_back(char)
    pstring.o(.text._ZN7PString5splitEc) refers to pstring.o(.text._ZNSt3__114__split_bufferINS_12basic_stringIcNS_11char_traitsIcEENS_9allocatorIcEEEERNS4_IS6_EEEC2EjjS8_) for std::__1::__split_buffer<std::__1::basic_string<char, std::__1::char_traits<char>, std::__1::allocator<char>>, std::__1::allocator<std::__1::basic_string<char, std::__1::char_traits<char>, std::__1::allocator<char>>>&>::__split_buffer__sub_object(unsigned, unsigned, std::__1::allocator<std::__1::basic_string<char, std::__1::char_traits<char>, std::__1::allocator<char>>>&)
    pstring.o(.text._ZN7PString5splitEc) refers to pstring.o(.text._ZNSt3__16vectorINS_12basic_stringIcNS_11char_traitsIcEENS_9allocatorIcEEEENS4_IS6_EEE26__swap_out_circular_bufferERNS_14__split_bufferIS6_RS7_EE) for std::__1::vector<std::__1::basic_string<char, std::__1::char_traits<char>, std::__1::allocator<char>>, std::__1::allocator<std::__1::basic_string<char, std::__1::char_traits<char>, std::__1::allocator<char>>>>::__swap_out_circular_buffer(std::__1::__split_buffer<std::__1::basic_string<char, std::__1::char_traits<char>, std::__1::allocator<char>>, std::__1::allocator<std::__1::basic_string<char, std::__1::char_traits<char>, std::__1::allocator<char>>>&>&)
    pstring.o(.text._ZN7PString5splitEc) refers to pstring.o(.text._ZNSt3__114__split_bufferINS_12basic_stringIcNS_11char_traitsIcEENS_9allocatorIcEEEERNS4_IS6_EEED2Ev) for std::__1::__split_buffer<std::__1::basic_string<char, std::__1::char_traits<char>, std::__1::allocator<char>>, std::__1::allocator<std::__1::basic_string<char, std::__1::char_traits<char>, std::__1::allocator<char>>>&>::~__split_buffer__sub_object()
    pstring.o(.text._ZN7PString5splitEc) refers to string.cpp.o(.text._ZNSt3__112basic_stringIcNS_11char_traitsIcEENS_9allocatorIcEEED2Ev) for std::__1::basic_string<char, std::__1::char_traits<char>, std::__1::allocator<char>>::~basic_string__sub_object()
    pstring.o(.text._ZN7PString5splitEc) refers to vector.cpp.o(.text._ZNKSt3__120__vector_base_commonILb1EE20__throw_length_errorEv) for std::__1::__vector_base_common<(bool)1>::__throw_length_error() const
    pstring.o(.ARM.exidx.text._ZN7PString5splitEc) refers to pstring.o(.text._ZN7PString5splitEc) for [Anonymous Symbol]
    pstring.o(.text._ZN7PString15splitWithClampsEcc) refers to string.cpp.o(.text._ZNSt3__112basic_stringIcNS_11char_traitsIcEENS_9allocatorIcEEE2atEj) for std::__1::basic_string<char, std::__1::char_traits<char>, std::__1::allocator<char>>::at(unsigned)
    pstring.o(.text._ZN7PString15splitWithClampsEcc) refers to string.cpp.o(.text._ZNSt3__112basic_stringIcNS_11char_traitsIcEENS_9allocatorIcEEEC2ERKS5_) for std::__1::basic_string<char, std::__1::char_traits<char>, std::__1::allocator<char>>::basic_string(const std::__1::basic_string<char, std::__1::char_traits<char>, std::__1::allocator<char>>&)
    pstring.o(.text._ZN7PString15splitWithClampsEcc) refers to string.cpp.o(.text._ZNSt3__112basic_stringIcNS_11char_traitsIcEENS_9allocatorIcEEE9push_backEc) for std::__1::basic_string<char, std::__1::char_traits<char>, std::__1::allocator<char>>::push_back(char)
    pstring.o(.text._ZN7PString15splitWithClampsEcc) refers to pstring.o(.text._ZNSt3__114__split_bufferINS_12basic_stringIcNS_11char_traitsIcEENS_9allocatorIcEEEERNS4_IS6_EEEC2EjjS8_) for std::__1::__split_buffer<std::__1::basic_string<char, std::__1::char_traits<char>, std::__1::allocator<char>>, std::__1::allocator<std::__1::basic_string<char, std::__1::char_traits<char>, std::__1::allocator<char>>>&>::__split_buffer__sub_object(unsigned, unsigned, std::__1::allocator<std::__1::basic_string<char, std::__1::char_traits<char>, std::__1::allocator<char>>>&)
    pstring.o(.text._ZN7PString15splitWithClampsEcc) refers to pstring.o(.text._ZNSt3__16vectorINS_12basic_stringIcNS_11char_traitsIcEENS_9allocatorIcEEEENS4_IS6_EEE26__swap_out_circular_bufferERNS_14__split_bufferIS6_RS7_EE) for std::__1::vector<std::__1::basic_string<char, std::__1::char_traits<char>, std::__1::allocator<char>>, std::__1::allocator<std::__1::basic_string<char, std::__1::char_traits<char>, std::__1::allocator<char>>>>::__swap_out_circular_buffer(std::__1::__split_buffer<std::__1::basic_string<char, std::__1::char_traits<char>, std::__1::allocator<char>>, std::__1::allocator<std::__1::basic_string<char, std::__1::char_traits<char>, std::__1::allocator<char>>>&>&)
    pstring.o(.text._ZN7PString15splitWithClampsEcc) refers to pstring.o(.text._ZNSt3__114__split_bufferINS_12basic_stringIcNS_11char_traitsIcEENS_9allocatorIcEEEERNS4_IS6_EEED2Ev) for std::__1::__split_buffer<std::__1::basic_string<char, std::__1::char_traits<char>, std::__1::allocator<char>>, std::__1::allocator<std::__1::basic_string<char, std::__1::char_traits<char>, std::__1::allocator<char>>>&>::~__split_buffer__sub_object()
    pstring.o(.text._ZN7PString15splitWithClampsEcc) refers to string.cpp.o(.text._ZNSt3__112basic_stringIcNS_11char_traitsIcEENS_9allocatorIcEEED2Ev) for std::__1::basic_string<char, std::__1::char_traits<char>, std::__1::allocator<char>>::~basic_string__sub_object()
    pstring.o(.text._ZN7PString15splitWithClampsEcc) refers to vector.cpp.o(.text._ZNKSt3__120__vector_base_commonILb1EE20__throw_length_errorEv) for std::__1::__vector_base_common<(bool)1>::__throw_length_error() const
    pstring.o(.ARM.exidx.text._ZN7PString15splitWithClampsEcc) refers to pstring.o(.text._ZN7PString15splitWithClampsEcc) for [Anonymous Symbol]
    alltests.o(.text.main) refers to commandlinetestrunner.o(.text._ZN21CommandLineTestRunner11RunAllTestsEiPKPKc) for CommandLineTestRunner::RunAllTests(int, const char*const *)
    alltests.o(.text.main) refers to alltests.o(.rodata..L__const.main.av_override) for [Anonymous Symbol]
    alltests.o(.ARM.exidx.text.main) refers to alltests.o(.text.main) for [Anonymous Symbol]
    alltests.o(.rodata..L__const.main.av_override) refers to alltests.o(.rodata.str1.1) for .L.str
    pstring_test.o(.text._ZN51TEST_PStringTestGroup_findDataAfterAcronimTest_Test8testBodyEv) refers to pstring.o(.text._ZN7PStringC2EPKc) for PString::PString(const char*)
    pstring_test.o(.text._ZN51TEST_PStringTestGroup_findDataAfterAcronimTest_Test8testBodyEv) refers to utest.o(.text._ZN10UtestShell10getCurrentEv) for UtestShell::getCurrent()
    pstring_test.o(.text._ZN51TEST_PStringTestGroup_findDataAfterAcronimTest_Test8testBodyEv) refers to pstring.o(.text._ZN7PString20findDataAfterAcronimEc) for PString::findDataAfterAcronim(char)
    pstring_test.o(.text._ZN51TEST_PStringTestGroup_findDataAfterAcronimTest_Test8testBodyEv) refers to utest.o(.text._ZN10UtestShell24getCurrentTestTerminatorEv) for UtestShell::getCurrentTestTerminator()
    pstring_test.o(.text._ZN51TEST_PStringTestGroup_findDataAfterAcronimTest_Test8testBodyEv) refers to pstring_test.o(.rodata.str1.1) for .L.str.4
    pstring_test.o(.text._ZN51TEST_PStringTestGroup_findDataAfterAcronimTest_Test8testBodyEv) refers to string.cpp.o(.text._ZNSt3__112basic_stringIcNS_11char_traitsIcEENS_9allocatorIcEEED2Ev) for std::__1::basic_string<char, std::__1::char_traits<char>, std::__1::allocator<char>>::~basic_string__sub_object()
    pstring_test.o(.ARM.exidx.text._ZN51TEST_PStringTestGroup_findDataAfterAcronimTest_Test8testBodyEv) refers to pstring_test.o(.text._ZN51TEST_PStringTestGroup_findDataAfterAcronimTest_Test8testBodyEv) for [Anonymous Symbol]
    pstring_test.o(.text._ZN52TEST_PStringTestGroup_findValueAfterAcronimTest_Test8testBodyEv) refers to pstring.o(.text._ZN7PStringC2EPKc) for PString::PString(const char*)
    pstring_test.o(.text._ZN52TEST_PStringTestGroup_findValueAfterAcronimTest_Test8testBodyEv) refers to utest.o(.text._ZN10UtestShell10getCurrentEv) for UtestShell::getCurrent()
    pstring_test.o(.text._ZN52TEST_PStringTestGroup_findValueAfterAcronimTest_Test8testBodyEv) refers to pstring.o(.text._ZN7PString21findValueAfterAcronimEcd) for PString::findValueAfterAcronim(char, double)
    pstring_test.o(.text._ZN52TEST_PStringTestGroup_findValueAfterAcronimTest_Test8testBodyEv) refers to utest.o(.text._ZN10UtestShell24getCurrentTestTerminatorEv) for UtestShell::getCurrentTestTerminator()
    pstring_test.o(.text._ZN52TEST_PStringTestGroup_findValueAfterAcronimTest_Test8testBodyEv) refers to string.cpp.o(.text._ZNSt3__112basic_stringIcNS_11char_traitsIcEENS_9allocatorIcEEED2Ev) for std::__1::basic_string<char, std::__1::char_traits<char>, std::__1::allocator<char>>::~basic_string__sub_object()
    pstring_test.o(.text._ZN52TEST_PStringTestGroup_findValueAfterAcronimTest_Test8testBodyEv) refers to pstring_test.o(.rodata.str1.1) for .L.str.4
    pstring_test.o(.ARM.exidx.text._ZN52TEST_PStringTestGroup_findValueAfterAcronimTest_Test8testBodyEv) refers to pstring_test.o(.text._ZN52TEST_PStringTestGroup_findValueAfterAcronimTest_Test8testBodyEv) for [Anonymous Symbol]
    pstring_test.o(.text._GLOBAL__sub_I_pstring_test.cpp) refers to pstring_test.o(.text._ZN56TEST_PStringTestGroup_findDataAfterAcronimTest_TestShellC2Ev) for TEST_PStringTestGroup_findDataAfterAcronimTest_TestShell::TEST_PStringTestGroup_findDataAfterAcronimTest_TestShell__sub_object()
    pstring_test.o(.text._GLOBAL__sub_I_pstring_test.cpp) refers to utest.o(.text._ZN13TestInstallerC2ER10UtestShellPKcS3_S3_j) for TestInstaller::TestInstaller(UtestShell&, const char*, const char*, const char*, unsigned)
    pstring_test.o(.text._GLOBAL__sub_I_pstring_test.cpp) refers to pstring_test.o(.text._ZN57TEST_PStringTestGroup_findValueAfterAcronimTest_TestShellC2Ev) for TEST_PStringTestGroup_findValueAfterAcronimTest_TestShell::TEST_PStringTestGroup_findValueAfterAcronimTest_TestShell__sub_object()
    pstring_test.o(.text._GLOBAL__sub_I_pstring_test.cpp) refers to pstring_test.o(.bss..L_MergedGlobals) for [Anonymous Symbol]
    pstring_test.o(.text._GLOBAL__sub_I_pstring_test.cpp) refers to utest.o(.text._ZN10UtestShellD2Ev) for UtestShell::~UtestShell__sub_object()
    pstring_test.o(.text._GLOBAL__sub_I_pstring_test.cpp) refers to cxa_atexit.o(.text) for __cxa_atexit
    pstring_test.o(.text._GLOBAL__sub_I_pstring_test.cpp) refers to pstring_test.o(.rodata.str1.1) for .L.str.3
    pstring_test.o(.text._GLOBAL__sub_I_pstring_test.cpp) refers to utest.o(.text._ZN13TestInstallerD2Ev) for TestInstaller::~TestInstaller()
    pstring_test.o(.ARM.exidx.text._GLOBAL__sub_I_pstring_test.cpp) refers to pstring_test.o(.text._GLOBAL__sub_I_pstring_test.cpp) for [Anonymous Symbol]
    pstring_test.o(.rodata._ZTV51TEST_PStringTestGroup_findDataAfterAcronimTest_Test) refers to pstring_test.o(.rodata._ZTI51TEST_PStringTestGroup_findDataAfterAcronimTest_Test) for typeinfo for TEST_PStringTestGroup_findDataAfterAcronimTest_Test
    pstring_test.o(.rodata._ZTV51TEST_PStringTestGroup_findDataAfterAcronimTest_Test) refers to utest.o(.text._ZN5UtestD2Ev) for Utest::~Utest__sub_object()
    pstring_test.o(.rodata._ZTV51TEST_PStringTestGroup_findDataAfterAcronimTest_Test) refers to pstring_test.o(.text._ZN51TEST_PStringTestGroup_findDataAfterAcronimTest_TestD0Ev) for TEST_PStringTestGroup_findDataAfterAcronimTest_Test::~TEST_PStringTestGroup_findDataAfterAcronimTest_Test__deallocating()
    pstring_test.o(.rodata._ZTV51TEST_PStringTestGroup_findDataAfterAcronimTest_Test) refers to utest.o(.text._ZN5Utest3runEv) for Utest::run()
    pstring_test.o(.rodata._ZTV51TEST_PStringTestGroup_findDataAfterAcronimTest_Test) refers to pstring_test.o(.text._ZN40TEST_GROUP_CppUTestGroupPStringTestGroup5setupEv) for TEST_GROUP_CppUTestGroupPStringTestGroup::setup()
    pstring_test.o(.rodata._ZTV51TEST_PStringTestGroup_findDataAfterAcronimTest_Test) refers to pstring_test.o(.text._ZN40TEST_GROUP_CppUTestGroupPStringTestGroup8teardownEv) for TEST_GROUP_CppUTestGroupPStringTestGroup::teardown()
    pstring_test.o(.rodata._ZTV51TEST_PStringTestGroup_findDataAfterAcronimTest_Test) refers to pstring_test.o(.text._ZN51TEST_PStringTestGroup_findDataAfterAcronimTest_Test8testBodyEv) for TEST_PStringTestGroup_findDataAfterAcronimTest_Test::testBody()
    pstring_test.o(.rodata._ZTI51TEST_PStringTestGroup_findDataAfterAcronimTest_Test) refers to private_typeinfo.cpp.o(.rodata._ZTVN10__cxxabiv120__si_class_type_infoE) for vtable for __cxxabiv1::__si_class_type_info
    pstring_test.o(.rodata._ZTI51TEST_PStringTestGroup_findDataAfterAcronimTest_Test) refers to pstring_test.o(.rodata._ZTS51TEST_PStringTestGroup_findDataAfterAcronimTest_Test) for typeinfo name for TEST_PStringTestGroup_findDataAfterAcronimTest_Test
    pstring_test.o(.rodata._ZTI51TEST_PStringTestGroup_findDataAfterAcronimTest_Test) refers to pstring_test.o(.rodata._ZTI40TEST_GROUP_CppUTestGroupPStringTestGroup) for typeinfo for TEST_GROUP_CppUTestGroupPStringTestGroup
    pstring_test.o(.rodata._ZTV52TEST_PStringTestGroup_findValueAfterAcronimTest_Test) refers to pstring_test.o(.rodata._ZTI52TEST_PStringTestGroup_findValueAfterAcronimTest_Test) for typeinfo for TEST_PStringTestGroup_findValueAfterAcronimTest_Test
    pstring_test.o(.rodata._ZTV52TEST_PStringTestGroup_findValueAfterAcronimTest_Test) refers to utest.o(.text._ZN5UtestD2Ev) for Utest::~Utest__sub_object()
    pstring_test.o(.rodata._ZTV52TEST_PStringTestGroup_findValueAfterAcronimTest_Test) refers to pstring_test.o(.text._ZN52TEST_PStringTestGroup_findValueAfterAcronimTest_TestD0Ev) for TEST_PStringTestGroup_findValueAfterAcronimTest_Test::~TEST_PStringTestGroup_findValueAfterAcronimTest_Test__deallocating()
    pstring_test.o(.rodata._ZTV52TEST_PStringTestGroup_findValueAfterAcronimTest_Test) refers to utest.o(.text._ZN5Utest3runEv) for Utest::run()
    pstring_test.o(.rodata._ZTV52TEST_PStringTestGroup_findValueAfterAcronimTest_Test) refers to pstring_test.o(.text._ZN40TEST_GROUP_CppUTestGroupPStringTestGroup5setupEv) for TEST_GROUP_CppUTestGroupPStringTestGroup::setup()
    pstring_test.o(.rodata._ZTV52TEST_PStringTestGroup_findValueAfterAcronimTest_Test) refers to pstring_test.o(.text._ZN40TEST_GROUP_CppUTestGroupPStringTestGroup8teardownEv) for TEST_GROUP_CppUTestGroupPStringTestGroup::teardown()
    pstring_test.o(.rodata._ZTV52TEST_PStringTestGroup_findValueAfterAcronimTest_Test) refers to pstring_test.o(.text._ZN52TEST_PStringTestGroup_findValueAfterAcronimTest_Test8testBodyEv) for TEST_PStringTestGroup_findValueAfterAcronimTest_Test::testBody()
    pstring_test.o(.rodata._ZTI52TEST_PStringTestGroup_findValueAfterAcronimTest_Test) refers to private_typeinfo.cpp.o(.rodata._ZTVN10__cxxabiv120__si_class_type_infoE) for vtable for __cxxabiv1::__si_class_type_info
    pstring_test.o(.rodata._ZTI52TEST_PStringTestGroup_findValueAfterAcronimTest_Test) refers to pstring_test.o(.rodata._ZTS52TEST_PStringTestGroup_findValueAfterAcronimTest_Test) for typeinfo name for TEST_PStringTestGroup_findValueAfterAcronimTest_Test
    pstring_test.o(.rodata._ZTI52TEST_PStringTestGroup_findValueAfterAcronimTest_Test) refers to pstring_test.o(.rodata._ZTI40TEST_GROUP_CppUTestGroupPStringTestGroup) for typeinfo for TEST_GROUP_CppUTestGroupPStringTestGroup
    pstring_test.o(.init_array) refers to pstring_test.o(.text._GLOBAL__sub_I_pstring_test.cpp) for _GLOBAL__sub_I_pstring_test.cpp
    retarget_io.o(.ARM.exidx.text.ITM_SendChar) refers to retarget_io.o(.text.ITM_SendChar) for [Anonymous Symbol]
    retarget_io.o(.text.ITM_ReceiveChar) refers to retarget_io.o(.data.ITM_RxBuffer) for ITM_RxBuffer
    retarget_io.o(.ARM.exidx.text.ITM_ReceiveChar) refers to retarget_io.o(.text.ITM_ReceiveChar) for [Anonymous Symbol]
    retarget_io.o(.text._sys_open) refers to strcmpv7m.o(.text) for strcmp
    retarget_io.o(.text._sys_open) refers to retarget_io.o(.rodata.__stdin_name) for __stdin_name
    retarget_io.o(.text._sys_open) refers to retarget_io.o(.rodata.__stdout_name) for __stdout_name
    retarget_io.o(.text._sys_open) refers to retarget_io.o(.rodata.__stderr_name) for __stderr_name
    retarget_io.o(.ARM.exidx.text._sys_open) refers to retarget_io.o(.text._sys_open) for [Anonymous Symbol]
    retarget_io.o(.ARM.exidx.text._sys_close) refers to retarget_io.o(.text._sys_close) for [Anonymous Symbol]
    retarget_io.o(.text._sys_write) refers to retarget_io.o(.text.ITM_SendChar) for ITM_SendChar
    retarget_io.o(.ARM.exidx.text._sys_write) refers to retarget_io.o(.text._sys_write) for [Anonymous Symbol]
    retarget_io.o(.ARM.exidx.text._sys_read) refers to retarget_io.o(.text._sys_read) for [Anonymous Symbol]
    retarget_io.o(.ARM.exidx.text._sys_istty) refers to retarget_io.o(.text._sys_istty) for [Anonymous Symbol]
    retarget_io.o(.ARM.exidx.text._sys_seek) refers to retarget_io.o(.text._sys_seek) for [Anonymous Symbol]
    retarget_io.o(.ARM.exidx.text._sys_flen) refers to retarget_io.o(.text._sys_flen) for [Anonymous Symbol]
    startup_stm32f10x_xl.o(STACK) refers (Special) to heapauxi.o(.text) for __use_two_region_memory
    startup_stm32f10x_xl.o(HEAP) refers (Special) to heapauxi.o(.text) for __use_two_region_memory
    startup_stm32f10x_xl.o(RESET) refers (Special) to heapauxi.o(.text) for __use_two_region_memory
    startup_stm32f10x_xl.o(RESET) refers to startup_stm32f10x_xl.o(STACK) for __initial_sp
    startup_stm32f10x_xl.o(RESET) refers to startup_stm32f10x_xl.o(.text) for Reset_Handler
    startup_stm32f10x_xl.o(.text) refers (Special) to heapauxi.o(.text) for __use_two_region_memory
    startup_stm32f10x_xl.o(.text) refers to system_stm32f10x.o(.text.SystemInit) for SystemInit
    startup_stm32f10x_xl.o(.text) refers to __main.o(!!!main) for __main
    startup_stm32f10x_xl.o(.text) refers to startup_stm32f10x_xl.o(HEAP) for Heap_Mem
    startup_stm32f10x_xl.o(.text) refers to startup_stm32f10x_xl.o(STACK) for Stack_Mem
    system_stm32f10x.o(.ARM.exidx.text.SystemInit) refers to system_stm32f10x.o(.text.SystemInit) for [Anonymous Symbol]
    system_stm32f10x.o(.text.SystemCoreClockUpdate) refers to system_stm32f10x.o(.data.SystemCoreClock) for SystemCoreClock
    system_stm32f10x.o(.text.SystemCoreClockUpdate) refers to system_stm32f10x.o(.rodata.AHBPrescTable) for AHBPrescTable
    system_stm32f10x.o(.ARM.exidx.text.SystemCoreClockUpdate) refers to system_stm32f10x.o(.text.SystemCoreClockUpdate) for [Anonymous Symbol]
    commandlinetestrunner.o(.text._ZN21CommandLineTestRunner11RunAllTestsEiPPc) refers to commandlinetestrunner.o(.text._ZN21CommandLineTestRunner11RunAllTestsEiPKPKc) for CommandLineTestRunner::RunAllTests(int, const char*const *)
    commandlinetestrunner.o(.ARM.exidx.text._ZN21CommandLineTestRunner11RunAllTestsEiPPc) refers to commandlinetestrunner.o(.text._ZN21CommandLineTestRunner11RunAllTestsEiPPc) for [Anonymous Symbol]
    commandlinetestrunner.o(.text._ZN21CommandLineTestRunner11RunAllTestsEiPKPKc) refers to commandlinetestrunner.o(.text._ZN17ConsoleTestOutputC2Ev) for ConsoleTestOutput::ConsoleTestOutput__sub_object()
    commandlinetestrunner.o(.text._ZN21CommandLineTestRunner11RunAllTestsEiPKPKc) refers to simplestring.o(.text._ZN12SimpleStringC2EPKc) for SimpleString::SimpleString(const char*)
    commandlinetestrunner.o(.text._ZN21CommandLineTestRunner11RunAllTestsEiPKPKc) refers to memoryleakwarningplugin.o(.text._ZN23MemoryLeakWarningPluginC2ERK12SimpleStringP18MemoryLeakDetector) for MemoryLeakWarningPlugin::MemoryLeakWarningPlugin(const SimpleString&, MemoryLeakDetector*)
    commandlinetestrunner.o(.text._ZN21CommandLineTestRunner11RunAllTestsEiPKPKc) refers to simplestring.o(.text._ZN12SimpleStringD2Ev) for SimpleString::~SimpleString()
    commandlinetestrunner.o(.text._ZN21CommandLineTestRunner11RunAllTestsEiPKPKc) refers to memoryleakwarningplugin.o(.text._ZN23MemoryLeakWarningPlugin62destroyGlobalDetectorAndTurnOffMemoryLeakDetectionInDestructorEb) for MemoryLeakWarningPlugin::destroyGlobalDetectorAndTurnOffMemoryLeakDetectionInDestructor(bool)
    commandlinetestrunner.o(.text._ZN21CommandLineTestRunner11RunAllTestsEiPKPKc) refers to testregistry.o(.text._ZN12TestRegistry18getCurrentRegistryEv) for TestRegistry::getCurrentRegistry()
    commandlinetestrunner.o(.text._ZN21CommandLineTestRunner11RunAllTestsEiPKPKc) refers to commandlinetestrunner.o(.text._ZN21CommandLineTestRunnerC2EiPKPKcP12TestRegistry) for CommandLineTestRunner::CommandLineTestRunner__sub_object(int, const char*const *, TestRegistry*)
    commandlinetestrunner.o(.text._ZN21CommandLineTestRunner11RunAllTestsEiPKPKc) refers to commandlinetestrunner.o(.text._ZN21CommandLineTestRunner15runAllTestsMainEv) for CommandLineTestRunner::runAllTestsMain()
    commandlinetestrunner.o(.text._ZN21CommandLineTestRunner11RunAllTestsEiPKPKc) refers to commandlinetestrunner.o(.text._ZN21CommandLineTestRunnerD2Ev) for CommandLineTestRunner::~CommandLineTestRunner__sub_object()
    commandlinetestrunner.o(.text._ZN21CommandLineTestRunner11RunAllTestsEiPKPKc) refers to memoryleakwarningplugin.o(.text._ZN23MemoryLeakWarningPlugin11FinalReportEj) for MemoryLeakWarningPlugin::FinalReport(unsigned)
    commandlinetestrunner.o(.text._ZN21CommandLineTestRunner11RunAllTestsEiPKPKc) refers to testoutput.o(.text._ZlsR10TestOutputPKc) for operator <<(TestOutput&, const char*)
    commandlinetestrunner.o(.text._ZN21CommandLineTestRunner11RunAllTestsEiPKPKc) refers to memoryleakwarningplugin.o(.text._ZN23MemoryLeakWarningPluginD2Ev) for MemoryLeakWarningPlugin::~MemoryLeakWarningPlugin()
    commandlinetestrunner.o(.text._ZN21CommandLineTestRunner11RunAllTestsEiPKPKc) refers to testoutput.o(.text._ZN10TestOutputD2Ev) for TestOutput::~TestOutput__sub_object()
    commandlinetestrunner.o(.text._ZN21CommandLineTestRunner11RunAllTestsEiPKPKc) refers to commandlinetestrunner.o(.rodata.str1.1) for .L.str
    commandlinetestrunner.o(.ARM.exidx.text._ZN21CommandLineTestRunner11RunAllTestsEiPKPKc) refers to commandlinetestrunner.o(.text._ZN21CommandLineTestRunner11RunAllTestsEiPKPKc) for [Anonymous Symbol]
    commandlinetestrunner.o(.text._ZN21CommandLineTestRunner15runAllTestsMainEv) refers to simplestring.o(.text._ZN12SimpleStringC2EPKc) for SimpleString::SimpleString(const char*)
    commandlinetestrunner.o(.text._ZN21CommandLineTestRunner15runAllTestsMainEv) refers to testplugin.o(.text._ZN16SetPointerPluginC2ERK12SimpleString) for SetPointerPlugin::SetPointerPlugin(const SimpleString&)
    commandlinetestrunner.o(.text._ZN21CommandLineTestRunner15runAllTestsMainEv) refers to simplestring.o(.text._ZN12SimpleStringD2Ev) for SimpleString::~SimpleString()
    commandlinetestrunner.o(.text._ZN21CommandLineTestRunner15runAllTestsMainEv) refers to commandlinetestrunner.o(.text._ZN21CommandLineTestRunner14parseArgumentsEP10TestPlugin) for CommandLineTestRunner::parseArguments(TestPlugin*)
    commandlinetestrunner.o(.text._ZN21CommandLineTestRunner15runAllTestsMainEv) refers to commandlinetestrunner.o(.text._ZN21CommandLineTestRunner11runAllTestsEv) for CommandLineTestRunner::runAllTests()
    commandlinetestrunner.o(.text._ZN21CommandLineTestRunner15runAllTestsMainEv) refers to testplugin.o(.text._ZN10TestPluginD2Ev) for TestPlugin::~TestPlugin__sub_object()
    commandlinetestrunner.o(.text._ZN21CommandLineTestRunner15runAllTestsMainEv) refers to commandlinetestrunner.o(.rodata.str1.1) for .L.str.2
    commandlinetestrunner.o(.ARM.exidx.text._ZN21CommandLineTestRunner15runAllTestsMainEv) refers to commandlinetestrunner.o(.text._ZN21CommandLineTestRunner15runAllTestsMainEv) for [Anonymous Symbol]
    commandlinetestrunner.o(.text._ZN21CommandLineTestRunnerC2EiPKPKcP12TestRegistry) refers to memoryleakwarningplugin.o(.text._ZnwjPKci) for operator new(unsigned, const char*, int)
    commandlinetestrunner.o(.text._ZN21CommandLineTestRunnerC2EiPKPKcP12TestRegistry) refers to commandlinearguments.o(.text._ZN20CommandLineArgumentsC2EiPKPKc) for CommandLineArguments::CommandLineArguments(int, const char*const *)
    commandlinetestrunner.o(.text._ZN21CommandLineTestRunnerC2EiPKPKcP12TestRegistry) refers to commandlinetestrunner.o(.rodata._ZTV21CommandLineTestRunner) for vtable for CommandLineTestRunner
    commandlinetestrunner.o(.text._ZN21CommandLineTestRunnerC2EiPKPKcP12TestRegistry) refers to commandlinetestrunner.o(.rodata.str1.1) for .L.str.1
    commandlinetestrunner.o(.ARM.exidx.text._ZN21CommandLineTestRunnerC2EiPKPKcP12TestRegistry) refers to commandlinetestrunner.o(.text._ZN21CommandLineTestRunnerC2EiPKPKcP12TestRegistry) for [Anonymous Symbol]
    commandlinetestrunner.o(.text._ZN21CommandLineTestRunnerD2Ev) refers to commandlinetestrunner.o(.rodata._ZTV21CommandLineTestRunner) for vtable for CommandLineTestRunner
    commandlinetestrunner.o(.ARM.exidx.text._ZN21CommandLineTestRunnerD2Ev) refers to commandlinetestrunner.o(.text._ZN21CommandLineTestRunnerD2Ev) for [Anonymous Symbol]
    commandlinetestrunner.o(.text._ZN21CommandLineTestRunnerD0Ev) refers to commandlinetestrunner.o(.text._ZN21CommandLineTestRunnerD2Ev) for CommandLineTestRunner::~CommandLineTestRunner__sub_object()
    commandlinetestrunner.o(.text._ZN21CommandLineTestRunnerD0Ev) refers to memoryleakwarningplugin.o(.text._ZdlPv) for operator delete (void*)
    commandlinetestrunner.o(.ARM.exidx.text._ZN21CommandLineTestRunnerD0Ev) refers to commandlinetestrunner.o(.text._ZN21CommandLineTestRunnerD0Ev) for [Anonymous Symbol]
    commandlinetestrunner.o(.text._ZN21CommandLineTestRunner14parseArgumentsEP10TestPlugin) refers to commandlinearguments.o(.text._ZN20CommandLineArguments5parseEP10TestPlugin) for CommandLineArguments::parse(TestPlugin*)
    commandlinetestrunner.o(.text._ZN21CommandLineTestRunner14parseArgumentsEP10TestPlugin) refers to commandlinearguments.o(.text._ZNK20CommandLineArguments13isJUnitOutputEv) for CommandLineArguments::isJUnitOutput() const
    commandlinetestrunner.o(.text._ZN21CommandLineTestRunner14parseArgumentsEP10TestPlugin) refers to commandlinearguments.o(.text._ZNK20CommandLineArguments14getPackageNameEv) for CommandLineArguments::getPackageName() const
    commandlinetestrunner.o(.text._ZN21CommandLineTestRunner14parseArgumentsEP10TestPlugin) refers to commandlinearguments.o(.text._ZNK20CommandLineArguments9isVerboseEv) for CommandLineArguments::isVerbose() const
    commandlinetestrunner.o(.text._ZN21CommandLineTestRunner14parseArgumentsEP10TestPlugin) refers to commandlinearguments.o(.text._ZNK20CommandLineArguments8needHelpEv) for CommandLineArguments::needHelp() const
    commandlinetestrunner.o(.text._ZN21CommandLineTestRunner14parseArgumentsEP10TestPlugin) refers to commandlinearguments.o(.text._ZNK20CommandLineArguments4helpEv) for CommandLineArguments::help() const
    commandlinetestrunner.o(.text._ZN21CommandLineTestRunner14parseArgumentsEP10TestPlugin) refers to commandlinearguments.o(.text._ZNK20CommandLineArguments16isTeamCityOutputEv) for CommandLineArguments::isTeamCityOutput() const
    commandlinetestrunner.o(.text._ZN21CommandLineTestRunner14parseArgumentsEP10TestPlugin) refers to commandlinearguments.o(.text._ZNK20CommandLineArguments5usageEv) for CommandLineArguments::usage() const
    commandlinetestrunner.o(.ARM.exidx.text._ZN21CommandLineTestRunner14parseArgumentsEP10TestPlugin) refers to commandlinetestrunner.o(.text._ZN21CommandLineTestRunner14parseArgumentsEP10TestPlugin) for [Anonymous Symbol]
    commandlinetestrunner.o(.text._ZN21CommandLineTestRunner11runAllTestsEv) refers to commandlinetestrunner.o(.text._ZN21CommandLineTestRunner17initializeTestRunEv) for CommandLineTestRunner::initializeTestRun()
    commandlinetestrunner.o(.text._ZN21CommandLineTestRunner11runAllTestsEv) refers to commandlinearguments.o(.text._ZNK20CommandLineArguments14getRepeatCountEv) for CommandLineArguments::getRepeatCount() const
    commandlinetestrunner.o(.text._ZN21CommandLineTestRunner11runAllTestsEv) refers to commandlinearguments.o(.text._ZNK20CommandLineArguments23isListingTestGroupNamesEv) for CommandLineArguments::isListingTestGroupNames() const
    commandlinetestrunner.o(.text._ZN21CommandLineTestRunner11runAllTestsEv) refers to testresult.o(.text._ZN10TestResultC2ER10TestOutput) for TestResult::TestResult(TestOutput&)
    commandlinetestrunner.o(.text._ZN21CommandLineTestRunner11runAllTestsEv) refers to commandlinearguments.o(.text._ZNK20CommandLineArguments30isListingTestGroupAndCaseNamesEv) for CommandLineArguments::isListingTestGroupAndCaseNames() const
    commandlinetestrunner.o(.text._ZN21CommandLineTestRunner11runAllTestsEv) refers to commandlinearguments.o(.text._ZNK20CommandLineArguments22isListingTestLocationsEv) for CommandLineArguments::isListingTestLocations() const
    commandlinetestrunner.o(.text._ZN21CommandLineTestRunner11runAllTestsEv) refers to testresult.o(.text._ZN10TestResultD2Ev) for TestResult::~TestResult()
    commandlinetestrunner.o(.text._ZN21CommandLineTestRunner11runAllTestsEv) refers to commandlinearguments.o(.text._ZNK20CommandLineArguments11isReversingEv) for CommandLineArguments::isReversing() const
    commandlinetestrunner.o(.text._ZN21CommandLineTestRunner11runAllTestsEv) refers to commandlinearguments.o(.text._ZNK20CommandLineArguments11isShufflingEv) for CommandLineArguments::isShuffling() const
    commandlinetestrunner.o(.text._ZN21CommandLineTestRunner11runAllTestsEv) refers to commandlinearguments.o(.text._ZNK20CommandLineArguments14getShuffleSeedEv) for CommandLineArguments::getShuffleSeed() const
    commandlinetestrunner.o(.ARM.exidx.text._ZN21CommandLineTestRunner11runAllTestsEv) refers to commandlinetestrunner.o(.text._ZN21CommandLineTestRunner11runAllTestsEv) for [Anonymous Symbol]
    commandlinetestrunner.o(.text._ZN21CommandLineTestRunner17initializeTestRunEv) refers to commandlinearguments.o(.text._ZNK20CommandLineArguments15getGroupFiltersEv) for CommandLineArguments::getGroupFilters() const
    commandlinetestrunner.o(.text._ZN21CommandLineTestRunner17initializeTestRunEv) refers to commandlinearguments.o(.text._ZNK20CommandLineArguments14getNameFiltersEv) for CommandLineArguments::getNameFilters() const
    commandlinetestrunner.o(.text._ZN21CommandLineTestRunner17initializeTestRunEv) refers to commandlinearguments.o(.text._ZNK20CommandLineArguments9isVerboseEv) for CommandLineArguments::isVerbose() const
    commandlinetestrunner.o(.text._ZN21CommandLineTestRunner17initializeTestRunEv) refers to commandlinearguments.o(.text._ZNK20CommandLineArguments13isVeryVerboseEv) for CommandLineArguments::isVeryVerbose() const
    commandlinetestrunner.o(.text._ZN21CommandLineTestRunner17initializeTestRunEv) refers to commandlinearguments.o(.text._ZNK20CommandLineArguments7isColorEv) for CommandLineArguments::isColor() const
    commandlinetestrunner.o(.text._ZN21CommandLineTestRunner17initializeTestRunEv) refers to commandlinearguments.o(.text._ZNK20CommandLineArguments25runTestsInSeperateProcessEv) for CommandLineArguments::runTestsInSeperateProcess() const
    commandlinetestrunner.o(.text._ZN21CommandLineTestRunner17initializeTestRunEv) refers to commandlinearguments.o(.text._ZNK20CommandLineArguments12isRunIgnoredEv) for CommandLineArguments::isRunIgnored() const
    commandlinetestrunner.o(.text._ZN21CommandLineTestRunner17initializeTestRunEv) refers to testregistry.o(.text._ZN12TestRegistry13setRunIgnoredEv) for TestRegistry::setRunIgnored()
    commandlinetestrunner.o(.text._ZN21CommandLineTestRunner17initializeTestRunEv) refers to commandlinearguments.o(.text._ZNK20CommandLineArguments16isCrashingOnFailEv) for CommandLineArguments::isCrashingOnFail() const
    commandlinetestrunner.o(.text._ZN21CommandLineTestRunner17initializeTestRunEv) refers to utest.o(.text._ZN10UtestShell14setCrashOnFailEv) for UtestShell::setCrashOnFail()
    commandlinetestrunner.o(.ARM.exidx.text._ZN21CommandLineTestRunner17initializeTestRunEv) refers to commandlinetestrunner.o(.text._ZN21CommandLineTestRunner17initializeTestRunEv) for [Anonymous Symbol]
    commandlinetestrunner.o(.text._ZN21CommandLineTestRunner20createTeamCityOutputEv) refers to memoryleakwarningplugin.o(.text._ZnwjPKci) for operator new(unsigned, const char*, int)
    commandlinetestrunner.o(.text._ZN21CommandLineTestRunner20createTeamCityOutputEv) refers to teamcitytestoutput.o(.text._ZN18TeamCityTestOutputC2Ev) for TeamCityTestOutput::TeamCityTestOutput()
    commandlinetestrunner.o(.text._ZN21CommandLineTestRunner20createTeamCityOutputEv) refers to commandlinetestrunner.o(.rodata.str1.1) for .L.str.1
    commandlinetestrunner.o(.ARM.exidx.text._ZN21CommandLineTestRunner20createTeamCityOutputEv) refers to commandlinetestrunner.o(.text._ZN21CommandLineTestRunner20createTeamCityOutputEv) for [Anonymous Symbol]
    commandlinetestrunner.o(.text._ZN21CommandLineTestRunner17createJUnitOutputERK12SimpleString) refers to memoryleakwarningplugin.o(.text._ZnwjPKci) for operator new(unsigned, const char*, int)
    commandlinetestrunner.o(.text._ZN21CommandLineTestRunner17createJUnitOutputERK12SimpleString) refers to junittestoutput.o(.text._ZN15JUnitTestOutputC2Ev) for JUnitTestOutput::JUnitTestOutput()
    commandlinetestrunner.o(.text._ZN21CommandLineTestRunner17createJUnitOutputERK12SimpleString) refers to junittestoutput.o(.text._ZN15JUnitTestOutput14setPackageNameERK12SimpleString) for JUnitTestOutput::setPackageName(const SimpleString&)
    commandlinetestrunner.o(.text._ZN21CommandLineTestRunner17createJUnitOutputERK12SimpleString) refers to commandlinetestrunner.o(.rodata.str1.1) for .L.str.1
    commandlinetestrunner.o(.ARM.exidx.text._ZN21CommandLineTestRunner17createJUnitOutputERK12SimpleString) refers to commandlinetestrunner.o(.text._ZN21CommandLineTestRunner17createJUnitOutputERK12SimpleString) for [Anonymous Symbol]
    commandlinetestrunner.o(.text._ZN21CommandLineTestRunner19createConsoleOutputEv) refers to memoryleakwarningplugin.o(.text._ZnwjPKci) for operator new(unsigned, const char*, int)
    commandlinetestrunner.o(.text._ZN21CommandLineTestRunner19createConsoleOutputEv) refers to commandlinetestrunner.o(.text._ZN17ConsoleTestOutputC2Ev) for ConsoleTestOutput::ConsoleTestOutput__sub_object()
    commandlinetestrunner.o(.text._ZN21CommandLineTestRunner19createConsoleOutputEv) refers to commandlinetestrunner.o(.rodata.str1.1) for .L.str.1
    commandlinetestrunner.o(.ARM.exidx.text._ZN21CommandLineTestRunner19createConsoleOutputEv) refers to commandlinetestrunner.o(.text._ZN21CommandLineTestRunner19createConsoleOutputEv) for [Anonymous Symbol]
    commandlinetestrunner.o(.text._ZN21CommandLineTestRunner21createCompositeOutputEP10TestOutputS1_) refers to memoryleakwarningplugin.o(.text._ZnwjPKci) for operator new(unsigned, const char*, int)
    commandlinetestrunner.o(.text._ZN21CommandLineTestRunner21createCompositeOutputEP10TestOutputS1_) refers to testoutput.o(.text._ZN19CompositeTestOutputC2Ev) for CompositeTestOutput::CompositeTestOutput()
    commandlinetestrunner.o(.text._ZN21CommandLineTestRunner21createCompositeOutputEP10TestOutputS1_) refers to commandlinetestrunner.o(.rodata.str1.1) for .L.str.1
    commandlinetestrunner.o(.ARM.exidx.text._ZN21CommandLineTestRunner21createCompositeOutputEP10TestOutputS1_) refers to commandlinetestrunner.o(.text._ZN21CommandLineTestRunner21createCompositeOutputEP10TestOutputS1_) for [Anonymous Symbol]
    commandlinetestrunner.o(.rodata._ZTV21CommandLineTestRunner) refers to commandlinetestrunner.o(.rodata._ZTI21CommandLineTestRunner) for typeinfo for CommandLineTestRunner
    commandlinetestrunner.o(.rodata._ZTV21CommandLineTestRunner) refers to commandlinetestrunner.o(.text._ZN21CommandLineTestRunnerD2Ev) for CommandLineTestRunner::~CommandLineTestRunner__sub_object()
    commandlinetestrunner.o(.rodata._ZTV21CommandLineTestRunner) refers to commandlinetestrunner.o(.text._ZN21CommandLineTestRunnerD0Ev) for CommandLineTestRunner::~CommandLineTestRunner__deallocating()
    commandlinetestrunner.o(.rodata._ZTV21CommandLineTestRunner) refers to commandlinetestrunner.o(.text._ZN21CommandLineTestRunner20createTeamCityOutputEv) for CommandLineTestRunner::createTeamCityOutput()
    commandlinetestrunner.o(.rodata._ZTV21CommandLineTestRunner) refers to commandlinetestrunner.o(.text._ZN21CommandLineTestRunner17createJUnitOutputERK12SimpleString) for CommandLineTestRunner::createJUnitOutput(const SimpleString&)
    commandlinetestrunner.o(.rodata._ZTV21CommandLineTestRunner) refers to commandlinetestrunner.o(.text._ZN21CommandLineTestRunner19createConsoleOutputEv) for CommandLineTestRunner::createConsoleOutput()
    commandlinetestrunner.o(.rodata._ZTV21CommandLineTestRunner) refers to commandlinetestrunner.o(.text._ZN21CommandLineTestRunner21createCompositeOutputEP10TestOutputS1_) for CommandLineTestRunner::createCompositeOutput(TestOutput*, TestOutput*)
    commandlinetestrunner.o(.rodata._ZTI21CommandLineTestRunner) refers to private_typeinfo.cpp.o(.rodata._ZTVN10__cxxabiv117__class_type_infoE) for vtable for __cxxabiv1::__class_type_info
    commandlinetestrunner.o(.rodata._ZTI21CommandLineTestRunner) refers to commandlinetestrunner.o(.rodata._ZTS21CommandLineTestRunner) for typeinfo name for CommandLineTestRunner
    memoryleakwarningplugin.o(.text._Z44cpputest_malloc_location_with_leak_detectionjPKcj) refers to memoryleakwarningplugin.o(.data..L_MergedGlobals) for [Anonymous Symbol]
    memoryleakwarningplugin.o(.ARM.exidx.text._Z44cpputest_malloc_location_with_leak_detectionjPKcj) refers to memoryleakwarningplugin.o(.text._Z44cpputest_malloc_location_with_leak_detectionjPKcj) for [Anonymous Symbol]
    memoryleakwarningplugin.o(.text._Z45cpputest_realloc_location_with_leak_detectionPvjPKcj) refers to memoryleakwarningplugin.o(.data..L_MergedGlobals) for [Anonymous Symbol]
    memoryleakwarningplugin.o(.ARM.exidx.text._Z45cpputest_realloc_location_with_leak_detectionPvjPKcj) refers to memoryleakwarningplugin.o(.text._Z45cpputest_realloc_location_with_leak_detectionPvjPKcj) for [Anonymous Symbol]
    memoryleakwarningplugin.o(.text._Z42cpputest_free_location_with_leak_detectionPvPKcj) refers to memoryleakwarningplugin.o(.data..L_MergedGlobals) for [Anonymous Symbol]
    memoryleakwarningplugin.o(.ARM.exidx.text._Z42cpputest_free_location_with_leak_detectionPvPKcj) refers to memoryleakwarningplugin.o(.text._Z42cpputest_free_location_with_leak_detectionPvPKcj) for [Anonymous Symbol]
    memoryleakwarningplugin.o(.text._Znwj) refers to memoryleakwarningplugin.o(.data..L_MergedGlobals) for [Anonymous Symbol]
    memoryleakwarningplugin.o(.ARM.exidx.text._Znwj) refers to memoryleakwarningplugin.o(.text._Znwj) for [Anonymous Symbol]
    memoryleakwarningplugin.o(.text._ZnwjPKci) refers to memoryleakwarningplugin.o(.data..L_MergedGlobals) for [Anonymous Symbol]
    memoryleakwarningplugin.o(.ARM.exidx.text._ZnwjPKci) refers to memoryleakwarningplugin.o(.text._ZnwjPKci) for [Anonymous Symbol]
    memoryleakwarningplugin.o(.text._ZnwjPKcj) refers to memoryleakwarningplugin.o(.data..L_MergedGlobals) for [Anonymous Symbol]
    memoryleakwarningplugin.o(.ARM.exidx.text._ZnwjPKcj) refers to memoryleakwarningplugin.o(.text._ZnwjPKcj) for [Anonymous Symbol]
    memoryleakwarningplugin.o(.text._ZdlPv) refers to memoryleakwarningplugin.o(.data..L_MergedGlobals) for [Anonymous Symbol]
    memoryleakwarningplugin.o(.ARM.exidx.text._ZdlPv) refers to memoryleakwarningplugin.o(.text._ZdlPv) for [Anonymous Symbol]
    memoryleakwarningplugin.o(.text._ZdlPvPKci) refers to memoryleakwarningplugin.o(.data..L_MergedGlobals) for [Anonymous Symbol]
    memoryleakwarningplugin.o(.ARM.exidx.text._ZdlPvPKci) refers to memoryleakwarningplugin.o(.text._ZdlPvPKci) for [Anonymous Symbol]
    memoryleakwarningplugin.o(.text._ZdlPvPKcj) refers to memoryleakwarningplugin.o(.data..L_MergedGlobals) for [Anonymous Symbol]
    memoryleakwarningplugin.o(.ARM.exidx.text._ZdlPvPKcj) refers to memoryleakwarningplugin.o(.text._ZdlPvPKcj) for [Anonymous Symbol]
    memoryleakwarningplugin.o(.text._Znaj) refers to memoryleakwarningplugin.o(.data..L_MergedGlobals) for [Anonymous Symbol]
    memoryleakwarningplugin.o(.ARM.exidx.text._Znaj) refers to memoryleakwarningplugin.o(.text._Znaj) for [Anonymous Symbol]
    memoryleakwarningplugin.o(.text._ZnajPKci) refers to memoryleakwarningplugin.o(.data..L_MergedGlobals) for [Anonymous Symbol]
    memoryleakwarningplugin.o(.ARM.exidx.text._ZnajPKci) refers to memoryleakwarningplugin.o(.text._ZnajPKci) for [Anonymous Symbol]
    memoryleakwarningplugin.o(.text._ZnajPKcj) refers to memoryleakwarningplugin.o(.data..L_MergedGlobals) for [Anonymous Symbol]
    memoryleakwarningplugin.o(.ARM.exidx.text._ZnajPKcj) refers to memoryleakwarningplugin.o(.text._ZnajPKcj) for [Anonymous Symbol]
    memoryleakwarningplugin.o(.text._ZdaPv) refers to memoryleakwarningplugin.o(.data..L_MergedGlobals) for [Anonymous Symbol]
    memoryleakwarningplugin.o(.ARM.exidx.text._ZdaPv) refers to memoryleakwarningplugin.o(.text._ZdaPv) for [Anonymous Symbol]
    memoryleakwarningplugin.o(.text._ZdaPvPKci) refers to memoryleakwarningplugin.o(.data..L_MergedGlobals) for [Anonymous Symbol]
    memoryleakwarningplugin.o(.ARM.exidx.text._ZdaPvPKci) refers to memoryleakwarningplugin.o(.text._ZdaPvPKci) for [Anonymous Symbol]
    memoryleakwarningplugin.o(.text._ZdaPvPKcj) refers to memoryleakwarningplugin.o(.data..L_MergedGlobals) for [Anonymous Symbol]
    memoryleakwarningplugin.o(.ARM.exidx.text._ZdaPvPKcj) refers to memoryleakwarningplugin.o(.text._ZdaPvPKcj) for [Anonymous Symbol]
    memoryleakwarningplugin.o(.text._Z20operator_new_nothrowj) refers to memoryleakwarningplugin.o(.data..L_MergedGlobals) for [Anonymous Symbol]
    memoryleakwarningplugin.o(.ARM.exidx.text._Z20operator_new_nothrowj) refers to memoryleakwarningplugin.o(.text._Z20operator_new_nothrowj) for [Anonymous Symbol]
    memoryleakwarningplugin.o(.text._Z26operator_new_array_nothrowj) refers to memoryleakwarningplugin.o(.data..L_MergedGlobals) for [Anonymous Symbol]
    memoryleakwarningplugin.o(.ARM.exidx.text._Z26operator_new_array_nothrowj) refers to memoryleakwarningplugin.o(.text._Z26operator_new_array_nothrowj) for [Anonymous Symbol]
    memoryleakwarningplugin.o(.text._ZN23MemoryLeakWarningPlugin25turnOffNewDeleteOverloadsEv) refers to memoryleakwarningplugin.o(.data..L_MergedGlobals) for [Anonymous Symbol]
    memoryleakwarningplugin.o(.text._ZN23MemoryLeakWarningPlugin25turnOffNewDeleteOverloadsEv) refers to memoryleakwarningplugin.o(.text._ZL27normal_operator_new_nothrowj) for _ZL27normal_operator_new_nothrowj
    memoryleakwarningplugin.o(.text._ZN23MemoryLeakWarningPlugin25turnOffNewDeleteOverloadsEv) refers to memoryleakwarningplugin.o(.text._ZL19normal_operator_newj) for _ZL19normal_operator_newj
    memoryleakwarningplugin.o(.text._ZN23MemoryLeakWarningPlugin25turnOffNewDeleteOverloadsEv) refers to memoryleakwarningplugin.o(.text._ZL33normal_operator_new_array_nothrowj) for _ZL33normal_operator_new_array_nothrowj
    memoryleakwarningplugin.o(.text._ZN23MemoryLeakWarningPlugin25turnOffNewDeleteOverloadsEv) refers to memoryleakwarningplugin.o(.text._ZL25normal_operator_new_arrayj) for _ZL25normal_operator_new_arrayj
    memoryleakwarningplugin.o(.text._ZN23MemoryLeakWarningPlugin25turnOffNewDeleteOverloadsEv) refers to memoryleakwarningplugin.o(.text._ZL25normal_operator_new_debugjPKcj) for _ZL25normal_operator_new_debugjPKcj
    memoryleakwarningplugin.o(.text._ZN23MemoryLeakWarningPlugin25turnOffNewDeleteOverloadsEv) refers to memoryleakwarningplugin.o(.text._ZL31normal_operator_new_array_debugjPKcj) for _ZL31normal_operator_new_array_debugjPKcj
    memoryleakwarningplugin.o(.text._ZN23MemoryLeakWarningPlugin25turnOffNewDeleteOverloadsEv) refers to memoryleakwarningplugin.o(.text._ZL28normal_operator_delete_arrayPv) for _ZL28normal_operator_delete_arrayPv
    memoryleakwarningplugin.o(.text._ZN23MemoryLeakWarningPlugin25turnOffNewDeleteOverloadsEv) refers to memoryleakwarningplugin.o(.text._ZL22normal_operator_deletePv) for _ZL22normal_operator_deletePv
    memoryleakwarningplugin.o(.text._ZN23MemoryLeakWarningPlugin25turnOffNewDeleteOverloadsEv) refers to memoryleakwarningplugin.o(.text._ZL11normal_freePvPKcj) for _ZL11normal_freePvPKcj
    memoryleakwarningplugin.o(.text._ZN23MemoryLeakWarningPlugin25turnOffNewDeleteOverloadsEv) refers to memoryleakwarningplugin.o(.text._ZL14normal_reallocPvjPKcj) for _ZL14normal_reallocPvjPKcj
    memoryleakwarningplugin.o(.text._ZN23MemoryLeakWarningPlugin25turnOffNewDeleteOverloadsEv) refers to memoryleakwarningplugin.o(.text._ZL13normal_mallocjPKcj) for _ZL13normal_mallocjPKcj
    memoryleakwarningplugin.o(.ARM.exidx.text._ZN23MemoryLeakWarningPlugin25turnOffNewDeleteOverloadsEv) refers to memoryleakwarningplugin.o(.text._ZN23MemoryLeakWarningPlugin25turnOffNewDeleteOverloadsEv) for [Anonymous Symbol]
    memoryleakwarningplugin.o(.text._ZL19normal_operator_newj) refers to utestplatform.o(.data.PlatformSpecificMalloc) for PlatformSpecificMalloc
    memoryleakwarningplugin.o(.ARM.exidx.text._ZL19normal_operator_newj) refers to memoryleakwarningplugin.o(.text._ZL19normal_operator_newj) for [Anonymous Symbol]
    memoryleakwarningplugin.o(.text._ZL27normal_operator_new_nothrowj) refers to utestplatform.o(.data.PlatformSpecificMalloc) for PlatformSpecificMalloc
    memoryleakwarningplugin.o(.ARM.exidx.text._ZL27normal_operator_new_nothrowj) refers to memoryleakwarningplugin.o(.text._ZL27normal_operator_new_nothrowj) for [Anonymous Symbol]
    memoryleakwarningplugin.o(.text._ZL25normal_operator_new_debugjPKcj) refers to utestplatform.o(.data.PlatformSpecificMalloc) for PlatformSpecificMalloc
    memoryleakwarningplugin.o(.ARM.exidx.text._ZL25normal_operator_new_debugjPKcj) refers to memoryleakwarningplugin.o(.text._ZL25normal_operator_new_debugjPKcj) for [Anonymous Symbol]
    memoryleakwarningplugin.o(.text._ZL25normal_operator_new_arrayj) refers to utestplatform.o(.data.PlatformSpecificMalloc) for PlatformSpecificMalloc
    memoryleakwarningplugin.o(.ARM.exidx.text._ZL25normal_operator_new_arrayj) refers to memoryleakwarningplugin.o(.text._ZL25normal_operator_new_arrayj) for [Anonymous Symbol]
    memoryleakwarningplugin.o(.text._ZL33normal_operator_new_array_nothrowj) refers to utestplatform.o(.data.PlatformSpecificMalloc) for PlatformSpecificMalloc
    memoryleakwarningplugin.o(.ARM.exidx.text._ZL33normal_operator_new_array_nothrowj) refers to memoryleakwarningplugin.o(.text._ZL33normal_operator_new_array_nothrowj) for [Anonymous Symbol]
    memoryleakwarningplugin.o(.text._ZL31normal_operator_new_array_debugjPKcj) refers to utestplatform.o(.data.PlatformSpecificMalloc) for PlatformSpecificMalloc
    memoryleakwarningplugin.o(.ARM.exidx.text._ZL31normal_operator_new_array_debugjPKcj) refers to memoryleakwarningplugin.o(.text._ZL31normal_operator_new_array_debugjPKcj) for [Anonymous Symbol]
    memoryleakwarningplugin.o(.text._ZL22normal_operator_deletePv) refers to utestplatform.o(.data.PlatformSpecificFree) for PlatformSpecificFree
    memoryleakwarningplugin.o(.ARM.exidx.text._ZL22normal_operator_deletePv) refers to memoryleakwarningplugin.o(.text._ZL22normal_operator_deletePv) for [Anonymous Symbol]
    memoryleakwarningplugin.o(.text._ZL28normal_operator_delete_arrayPv) refers to utestplatform.o(.data.PlatformSpecificFree) for PlatformSpecificFree
    memoryleakwarningplugin.o(.ARM.exidx.text._ZL28normal_operator_delete_arrayPv) refers to memoryleakwarningplugin.o(.text._ZL28normal_operator_delete_arrayPv) for [Anonymous Symbol]
    memoryleakwarningplugin.o(.text._ZL13normal_mallocjPKcj) refers to utestplatform.o(.data.PlatformSpecificMalloc) for PlatformSpecificMalloc
    memoryleakwarningplugin.o(.ARM.exidx.text._ZL13normal_mallocjPKcj) refers to memoryleakwarningplugin.o(.text._ZL13normal_mallocjPKcj) for [Anonymous Symbol]
    memoryleakwarningplugin.o(.text._ZL14normal_reallocPvjPKcj) refers to utestplatform.o(.data.PlatformSpecificRealloc) for PlatformSpecificRealloc
    memoryleakwarningplugin.o(.ARM.exidx.text._ZL14normal_reallocPvjPKcj) refers to memoryleakwarningplugin.o(.text._ZL14normal_reallocPvjPKcj) for [Anonymous Symbol]
    memoryleakwarningplugin.o(.text._ZL11normal_freePvPKcj) refers to utestplatform.o(.data.PlatformSpecificFree) for PlatformSpecificFree
    memoryleakwarningplugin.o(.ARM.exidx.text._ZL11normal_freePvPKcj) refers to memoryleakwarningplugin.o(.text._ZL11normal_freePvPKcj) for [Anonymous Symbol]
    memoryleakwarningplugin.o(.text._ZN23MemoryLeakWarningPlugin44turnOnDefaultNotThreadSafeNewDeleteOverloadsEv) refers to memoryleakwarningplugin.o(.data..L_MergedGlobals) for [Anonymous Symbol]
    memoryleakwarningplugin.o(.text._ZN23MemoryLeakWarningPlugin44turnOnDefaultNotThreadSafeNewDeleteOverloadsEv) refers to memoryleakwarningplugin.o(.text._ZL29mem_leak_operator_new_nothrowj) for _ZL29mem_leak_operator_new_nothrowj
    memoryleakwarningplugin.o(.text._ZN23MemoryLeakWarningPlugin44turnOnDefaultNotThreadSafeNewDeleteOverloadsEv) refers to memoryleakwarningplugin.o(.text._ZL21mem_leak_operator_newj) for _ZL21mem_leak_operator_newj
    memoryleakwarningplugin.o(.text._ZN23MemoryLeakWarningPlugin44turnOnDefaultNotThreadSafeNewDeleteOverloadsEv) refers to memoryleakwarningplugin.o(.text._ZL35mem_leak_operator_new_array_nothrowj) for _ZL35mem_leak_operator_new_array_nothrowj
    memoryleakwarningplugin.o(.text._ZN23MemoryLeakWarningPlugin44turnOnDefaultNotThreadSafeNewDeleteOverloadsEv) refers to memoryleakwarningplugin.o(.text._ZL27mem_leak_operator_new_arrayj) for _ZL27mem_leak_operator_new_arrayj
    memoryleakwarningplugin.o(.text._ZN23MemoryLeakWarningPlugin44turnOnDefaultNotThreadSafeNewDeleteOverloadsEv) refers to memoryleakwarningplugin.o(.text._ZL27mem_leak_operator_new_debugjPKcj) for _ZL27mem_leak_operator_new_debugjPKcj
    memoryleakwarningplugin.o(.text._ZN23MemoryLeakWarningPlugin44turnOnDefaultNotThreadSafeNewDeleteOverloadsEv) refers to memoryleakwarningplugin.o(.text._ZL33mem_leak_operator_new_array_debugjPKcj) for _ZL33mem_leak_operator_new_array_debugjPKcj
    memoryleakwarningplugin.o(.text._ZN23MemoryLeakWarningPlugin44turnOnDefaultNotThreadSafeNewDeleteOverloadsEv) refers to memoryleakwarningplugin.o(.text._ZL30mem_leak_operator_delete_arrayPv) for _ZL30mem_leak_operator_delete_arrayPv
    memoryleakwarningplugin.o(.text._ZN23MemoryLeakWarningPlugin44turnOnDefaultNotThreadSafeNewDeleteOverloadsEv) refers to memoryleakwarningplugin.o(.text._ZL24mem_leak_operator_deletePv) for _ZL24mem_leak_operator_deletePv
    memoryleakwarningplugin.o(.text._ZN23MemoryLeakWarningPlugin44turnOnDefaultNotThreadSafeNewDeleteOverloadsEv) refers to memoryleakwarningplugin.o(.text._ZL13mem_leak_freePvPKcj) for _ZL13mem_leak_freePvPKcj
    memoryleakwarningplugin.o(.text._ZN23MemoryLeakWarningPlugin44turnOnDefaultNotThreadSafeNewDeleteOverloadsEv) refers to memoryleakwarningplugin.o(.text._ZL16mem_leak_reallocPvjPKcj) for _ZL16mem_leak_reallocPvjPKcj
    memoryleakwarningplugin.o(.text._ZN23MemoryLeakWarningPlugin44turnOnDefaultNotThreadSafeNewDeleteOverloadsEv) refers to memoryleakwarningplugin.o(.text._ZL15mem_leak_mallocjPKcj) for _ZL15mem_leak_mallocjPKcj
    memoryleakwarningplugin.o(.ARM.exidx.text._ZN23MemoryLeakWarningPlugin44turnOnDefaultNotThreadSafeNewDeleteOverloadsEv) refers to memoryleakwarningplugin.o(.text._ZN23MemoryLeakWarningPlugin44turnOnDefaultNotThreadSafeNewDeleteOverloadsEv) for [Anonymous Symbol]
    memoryleakwarningplugin.o(.text._ZL21mem_leak_operator_newj) refers to memoryleakwarningplugin.o(.text._ZN23MemoryLeakWarningPlugin17getGlobalDetectorEv) for MemoryLeakWarningPlugin::getGlobalDetector()
    memoryleakwarningplugin.o(.text._ZL21mem_leak_operator_newj) refers to testmemoryallocator.o(.text._Z22getCurrentNewAllocatorv) for getCurrentNewAllocator()
    memoryleakwarningplugin.o(.text._ZL21mem_leak_operator_newj) refers to memoryleakdetector.o(.text._ZN18MemoryLeakDetector11allocMemoryEP19TestMemoryAllocatorjb) for MemoryLeakDetector::allocMemory(TestMemoryAllocator*, unsigned, bool)
    memoryleakwarningplugin.o(.ARM.exidx.text._ZL21mem_leak_operator_newj) refers to memoryleakwarningplugin.o(.text._ZL21mem_leak_operator_newj) for [Anonymous Symbol]
    memoryleakwarningplugin.o(.text._ZL29mem_leak_operator_new_nothrowj) refers to memoryleakwarningplugin.o(.text._ZN23MemoryLeakWarningPlugin17getGlobalDetectorEv) for MemoryLeakWarningPlugin::getGlobalDetector()
    memoryleakwarningplugin.o(.text._ZL29mem_leak_operator_new_nothrowj) refers to testmemoryallocator.o(.text._Z22getCurrentNewAllocatorv) for getCurrentNewAllocator()
    memoryleakwarningplugin.o(.text._ZL29mem_leak_operator_new_nothrowj) refers to memoryleakdetector.o(.text._ZN18MemoryLeakDetector11allocMemoryEP19TestMemoryAllocatorjb) for MemoryLeakDetector::allocMemory(TestMemoryAllocator*, unsigned, bool)
    memoryleakwarningplugin.o(.ARM.exidx.text._ZL29mem_leak_operator_new_nothrowj) refers to memoryleakwarningplugin.o(.text._ZL29mem_leak_operator_new_nothrowj) for [Anonymous Symbol]
    memoryleakwarningplugin.o(.text._ZL27mem_leak_operator_new_debugjPKcj) refers to memoryleakwarningplugin.o(.text._ZN23MemoryLeakWarningPlugin17getGlobalDetectorEv) for MemoryLeakWarningPlugin::getGlobalDetector()
    memoryleakwarningplugin.o(.text._ZL27mem_leak_operator_new_debugjPKcj) refers to testmemoryallocator.o(.text._Z22getCurrentNewAllocatorv) for getCurrentNewAllocator()
    memoryleakwarningplugin.o(.text._ZL27mem_leak_operator_new_debugjPKcj) refers to memoryleakdetector.o(.text._ZN18MemoryLeakDetector11allocMemoryEP19TestMemoryAllocatorjPKcjb) for MemoryLeakDetector::allocMemory(TestMemoryAllocator*, unsigned, const char*, unsigned, bool)
    memoryleakwarningplugin.o(.ARM.exidx.text._ZL27mem_leak_operator_new_debugjPKcj) refers to memoryleakwarningplugin.o(.text._ZL27mem_leak_operator_new_debugjPKcj) for [Anonymous Symbol]
    memoryleakwarningplugin.o(.text._ZL27mem_leak_operator_new_arrayj) refers to memoryleakwarningplugin.o(.text._ZN23MemoryLeakWarningPlugin17getGlobalDetectorEv) for MemoryLeakWarningPlugin::getGlobalDetector()
    memoryleakwarningplugin.o(.text._ZL27mem_leak_operator_new_arrayj) refers to testmemoryallocator.o(.text._Z27getCurrentNewArrayAllocatorv) for getCurrentNewArrayAllocator()
    memoryleakwarningplugin.o(.text._ZL27mem_leak_operator_new_arrayj) refers to memoryleakdetector.o(.text._ZN18MemoryLeakDetector11allocMemoryEP19TestMemoryAllocatorjb) for MemoryLeakDetector::allocMemory(TestMemoryAllocator*, unsigned, bool)
    memoryleakwarningplugin.o(.ARM.exidx.text._ZL27mem_leak_operator_new_arrayj) refers to memoryleakwarningplugin.o(.text._ZL27mem_leak_operator_new_arrayj) for [Anonymous Symbol]
    memoryleakwarningplugin.o(.text._ZL35mem_leak_operator_new_array_nothrowj) refers to memoryleakwarningplugin.o(.text._ZN23MemoryLeakWarningPlugin17getGlobalDetectorEv) for MemoryLeakWarningPlugin::getGlobalDetector()
    memoryleakwarningplugin.o(.text._ZL35mem_leak_operator_new_array_nothrowj) refers to testmemoryallocator.o(.text._Z27getCurrentNewArrayAllocatorv) for getCurrentNewArrayAllocator()
    memoryleakwarningplugin.o(.text._ZL35mem_leak_operator_new_array_nothrowj) refers to memoryleakdetector.o(.text._ZN18MemoryLeakDetector11allocMemoryEP19TestMemoryAllocatorjb) for MemoryLeakDetector::allocMemory(TestMemoryAllocator*, unsigned, bool)
    memoryleakwarningplugin.o(.ARM.exidx.text._ZL35mem_leak_operator_new_array_nothrowj) refers to memoryleakwarningplugin.o(.text._ZL35mem_leak_operator_new_array_nothrowj) for [Anonymous Symbol]
    memoryleakwarningplugin.o(.text._ZL33mem_leak_operator_new_array_debugjPKcj) refers to memoryleakwarningplugin.o(.text._ZN23MemoryLeakWarningPlugin17getGlobalDetectorEv) for MemoryLeakWarningPlugin::getGlobalDetector()
    memoryleakwarningplugin.o(.text._ZL33mem_leak_operator_new_array_debugjPKcj) refers to testmemoryallocator.o(.text._Z27getCurrentNewArrayAllocatorv) for getCurrentNewArrayAllocator()
    memoryleakwarningplugin.o(.text._ZL33mem_leak_operator_new_array_debugjPKcj) refers to memoryleakdetector.o(.text._ZN18MemoryLeakDetector11allocMemoryEP19TestMemoryAllocatorjPKcjb) for MemoryLeakDetector::allocMemory(TestMemoryAllocator*, unsigned, const char*, unsigned, bool)
    memoryleakwarningplugin.o(.ARM.exidx.text._ZL33mem_leak_operator_new_array_debugjPKcj) refers to memoryleakwarningplugin.o(.text._ZL33mem_leak_operator_new_array_debugjPKcj) for [Anonymous Symbol]
    memoryleakwarningplugin.o(.text._ZL24mem_leak_operator_deletePv) refers to memoryleakwarningplugin.o(.text._ZN23MemoryLeakWarningPlugin17getGlobalDetectorEv) for MemoryLeakWarningPlugin::getGlobalDetector()
    memoryleakwarningplugin.o(.text._ZL24mem_leak_operator_deletePv) refers to memoryleakdetector.o(.text._ZN18MemoryLeakDetector16invalidateMemoryEPc) for MemoryLeakDetector::invalidateMemory(char*)
    memoryleakwarningplugin.o(.text._ZL24mem_leak_operator_deletePv) refers to testmemoryallocator.o(.text._Z22getCurrentNewAllocatorv) for getCurrentNewAllocator()
    memoryleakwarningplugin.o(.text._ZL24mem_leak_operator_deletePv) refers to memoryleakdetector.o(.text._ZN18MemoryLeakDetector13deallocMemoryEP19TestMemoryAllocatorPvb) for MemoryLeakDetector::deallocMemory(TestMemoryAllocator*, void*, bool)
    memoryleakwarningplugin.o(.ARM.exidx.text._ZL24mem_leak_operator_deletePv) refers to memoryleakwarningplugin.o(.text._ZL24mem_leak_operator_deletePv) for [Anonymous Symbol]
    memoryleakwarningplugin.o(.text._ZL30mem_leak_operator_delete_arrayPv) refers to memoryleakwarningplugin.o(.text._ZN23MemoryLeakWarningPlugin17getGlobalDetectorEv) for MemoryLeakWarningPlugin::getGlobalDetector()
    memoryleakwarningplugin.o(.text._ZL30mem_leak_operator_delete_arrayPv) refers to memoryleakdetector.o(.text._ZN18MemoryLeakDetector16invalidateMemoryEPc) for MemoryLeakDetector::invalidateMemory(char*)
    memoryleakwarningplugin.o(.text._ZL30mem_leak_operator_delete_arrayPv) refers to testmemoryallocator.o(.text._Z27getCurrentNewArrayAllocatorv) for getCurrentNewArrayAllocator()
    memoryleakwarningplugin.o(.text._ZL30mem_leak_operator_delete_arrayPv) refers to memoryleakdetector.o(.text._ZN18MemoryLeakDetector13deallocMemoryEP19TestMemoryAllocatorPvb) for MemoryLeakDetector::deallocMemory(TestMemoryAllocator*, void*, bool)
    memoryleakwarningplugin.o(.ARM.exidx.text._ZL30mem_leak_operator_delete_arrayPv) refers to memoryleakwarningplugin.o(.text._ZL30mem_leak_operator_delete_arrayPv) for [Anonymous Symbol]
    memoryleakwarningplugin.o(.text._ZL15mem_leak_mallocjPKcj) refers to memoryleakwarningplugin.o(.text._ZN23MemoryLeakWarningPlugin17getGlobalDetectorEv) for MemoryLeakWarningPlugin::getGlobalDetector()
    memoryleakwarningplugin.o(.text._ZL15mem_leak_mallocjPKcj) refers to testmemoryallocator.o(.text._Z25getCurrentMallocAllocatorv) for getCurrentMallocAllocator()
    memoryleakwarningplugin.o(.text._ZL15mem_leak_mallocjPKcj) refers to memoryleakdetector.o(.text._ZN18MemoryLeakDetector11allocMemoryEP19TestMemoryAllocatorjPKcjb) for MemoryLeakDetector::allocMemory(TestMemoryAllocator*, unsigned, const char*, unsigned, bool)
    memoryleakwarningplugin.o(.ARM.exidx.text._ZL15mem_leak_mallocjPKcj) refers to memoryleakwarningplugin.o(.text._ZL15mem_leak_mallocjPKcj) for [Anonymous Symbol]
    memoryleakwarningplugin.o(.text._ZL16mem_leak_reallocPvjPKcj) refers to memoryleakwarningplugin.o(.text._ZN23MemoryLeakWarningPlugin17getGlobalDetectorEv) for MemoryLeakWarningPlugin::getGlobalDetector()
    memoryleakwarningplugin.o(.text._ZL16mem_leak_reallocPvjPKcj) refers to testmemoryallocator.o(.text._Z25getCurrentMallocAllocatorv) for getCurrentMallocAllocator()
    memoryleakwarningplugin.o(.text._ZL16mem_leak_reallocPvjPKcj) refers to memoryleakdetector.o(.text._ZN18MemoryLeakDetector13reallocMemoryEP19TestMemoryAllocatorPcjPKcjb) for MemoryLeakDetector::reallocMemory(TestMemoryAllocator*, char*, unsigned, const char*, unsigned, bool)
    memoryleakwarningplugin.o(.ARM.exidx.text._ZL16mem_leak_reallocPvjPKcj) refers to memoryleakwarningplugin.o(.text._ZL16mem_leak_reallocPvjPKcj) for [Anonymous Symbol]
    memoryleakwarningplugin.o(.text._ZL13mem_leak_freePvPKcj) refers to memoryleakwarningplugin.o(.text._ZN23MemoryLeakWarningPlugin17getGlobalDetectorEv) for MemoryLeakWarningPlugin::getGlobalDetector()
    memoryleakwarningplugin.o(.text._ZL13mem_leak_freePvPKcj) refers to memoryleakdetector.o(.text._ZN18MemoryLeakDetector16invalidateMemoryEPc) for MemoryLeakDetector::invalidateMemory(char*)
    memoryleakwarningplugin.o(.text._ZL13mem_leak_freePvPKcj) refers to testmemoryallocator.o(.text._Z25getCurrentMallocAllocatorv) for getCurrentMallocAllocator()
    memoryleakwarningplugin.o(.text._ZL13mem_leak_freePvPKcj) refers to memoryleakdetector.o(.text._ZN18MemoryLeakDetector13deallocMemoryEP19TestMemoryAllocatorPvPKcjb) for MemoryLeakDetector::deallocMemory(TestMemoryAllocator*, void*, const char*, unsigned, bool)
    memoryleakwarningplugin.o(.ARM.exidx.text._ZL13mem_leak_freePvPKcj) refers to memoryleakwarningplugin.o(.text._ZL13mem_leak_freePvPKcj) for [Anonymous Symbol]
    memoryleakwarningplugin.o(.text._ZN23MemoryLeakWarningPlugin34turnOnThreadSafeNewDeleteOverloadsEv) refers to memoryleakwarningplugin.o(.data..L_MergedGlobals) for [Anonymous Symbol]
    memoryleakwarningplugin.o(.text._ZN23MemoryLeakWarningPlugin34turnOnThreadSafeNewDeleteOverloadsEv) refers to memoryleakwarningplugin.o(.text._ZL40threadsafe_mem_leak_operator_new_nothrowj) for _ZL40threadsafe_mem_leak_operator_new_nothrowj
    memoryleakwarningplugin.o(.text._ZN23MemoryLeakWarningPlugin34turnOnThreadSafeNewDeleteOverloadsEv) refers to memoryleakwarningplugin.o(.text._ZL32threadsafe_mem_leak_operator_newj) for _ZL32threadsafe_mem_leak_operator_newj
    memoryleakwarningplugin.o(.text._ZN23MemoryLeakWarningPlugin34turnOnThreadSafeNewDeleteOverloadsEv) refers to memoryleakwarningplugin.o(.text._ZL46threadsafe_mem_leak_operator_new_array_nothrowj) for _ZL46threadsafe_mem_leak_operator_new_array_nothrowj
    memoryleakwarningplugin.o(.text._ZN23MemoryLeakWarningPlugin34turnOnThreadSafeNewDeleteOverloadsEv) refers to memoryleakwarningplugin.o(.text._ZL38threadsafe_mem_leak_operator_new_arrayj) for _ZL38threadsafe_mem_leak_operator_new_arrayj
    memoryleakwarningplugin.o(.text._ZN23MemoryLeakWarningPlugin34turnOnThreadSafeNewDeleteOverloadsEv) refers to memoryleakwarningplugin.o(.text._ZL38threadsafe_mem_leak_operator_new_debugjPKcj) for _ZL38threadsafe_mem_leak_operator_new_debugjPKcj
    memoryleakwarningplugin.o(.text._ZN23MemoryLeakWarningPlugin34turnOnThreadSafeNewDeleteOverloadsEv) refers to memoryleakwarningplugin.o(.text._ZL44threadsafe_mem_leak_operator_new_array_debugjPKcj) for _ZL44threadsafe_mem_leak_operator_new_array_debugjPKcj
    memoryleakwarningplugin.o(.text._ZN23MemoryLeakWarningPlugin34turnOnThreadSafeNewDeleteOverloadsEv) refers to memoryleakwarningplugin.o(.text._ZL41threadsafe_mem_leak_operator_delete_arrayPv) for _ZL41threadsafe_mem_leak_operator_delete_arrayPv
    memoryleakwarningplugin.o(.text._ZN23MemoryLeakWarningPlugin34turnOnThreadSafeNewDeleteOverloadsEv) refers to memoryleakwarningplugin.o(.text._ZL35threadsafe_mem_leak_operator_deletePv) for _ZL35threadsafe_mem_leak_operator_deletePv
    memoryleakwarningplugin.o(.text._ZN23MemoryLeakWarningPlugin34turnOnThreadSafeNewDeleteOverloadsEv) refers to memoryleakwarningplugin.o(.text._ZL24threadsafe_mem_leak_freePvPKcj) for _ZL24threadsafe_mem_leak_freePvPKcj
    memoryleakwarningplugin.o(.text._ZN23MemoryLeakWarningPlugin34turnOnThreadSafeNewDeleteOverloadsEv) refers to memoryleakwarningplugin.o(.text._ZL27threadsafe_mem_leak_reallocPvjPKcj) for _ZL27threadsafe_mem_leak_reallocPvjPKcj
    memoryleakwarningplugin.o(.text._ZN23MemoryLeakWarningPlugin34turnOnThreadSafeNewDeleteOverloadsEv) refers to memoryleakwarningplugin.o(.text._ZL26threadsafe_mem_leak_mallocjPKcj) for _ZL26threadsafe_mem_leak_mallocjPKcj
    memoryleakwarningplugin.o(.ARM.exidx.text._ZN23MemoryLeakWarningPlugin34turnOnThreadSafeNewDeleteOverloadsEv) refers to memoryleakwarningplugin.o(.text._ZN23MemoryLeakWarningPlugin34turnOnThreadSafeNewDeleteOverloadsEv) for [Anonymous Symbol]
    memoryleakwarningplugin.o(.text._ZL32threadsafe_mem_leak_operator_newj) refers to memoryleakwarningplugin.o(.text._ZN18MemLeakScopedMutexC2Ev) for MemLeakScopedMutex::MemLeakScopedMutex__sub_object()
    memoryleakwarningplugin.o(.text._ZL32threadsafe_mem_leak_operator_newj) refers to memoryleakwarningplugin.o(.text._ZN23MemoryLeakWarningPlugin17getGlobalDetectorEv) for MemoryLeakWarningPlugin::getGlobalDetector()
    memoryleakwarningplugin.o(.text._ZL32threadsafe_mem_leak_operator_newj) refers to testmemoryallocator.o(.text._Z22getCurrentNewAllocatorv) for getCurrentNewAllocator()
    memoryleakwarningplugin.o(.text._ZL32threadsafe_mem_leak_operator_newj) refers to memoryleakdetector.o(.text._ZN18MemoryLeakDetector11allocMemoryEP19TestMemoryAllocatorjb) for MemoryLeakDetector::allocMemory(TestMemoryAllocator*, unsigned, bool)
    memoryleakwarningplugin.o(.text._ZL32threadsafe_mem_leak_operator_newj) refers to simplemutex.o(.text._ZN15ScopedMutexLockD2Ev) for ScopedMutexLock::~ScopedMutexLock()
    memoryleakwarningplugin.o(.ARM.exidx.text._ZL32threadsafe_mem_leak_operator_newj) refers to memoryleakwarningplugin.o(.text._ZL32threadsafe_mem_leak_operator_newj) for [Anonymous Symbol]
    memoryleakwarningplugin.o(.text._ZL40threadsafe_mem_leak_operator_new_nothrowj) refers to memoryleakwarningplugin.o(.text._ZN18MemLeakScopedMutexC2Ev) for MemLeakScopedMutex::MemLeakScopedMutex__sub_object()
    memoryleakwarningplugin.o(.text._ZL40threadsafe_mem_leak_operator_new_nothrowj) refers to memoryleakwarningplugin.o(.text._ZN23MemoryLeakWarningPlugin17getGlobalDetectorEv) for MemoryLeakWarningPlugin::getGlobalDetector()
    memoryleakwarningplugin.o(.text._ZL40threadsafe_mem_leak_operator_new_nothrowj) refers to testmemoryallocator.o(.text._Z22getCurrentNewAllocatorv) for getCurrentNewAllocator()
    memoryleakwarningplugin.o(.text._ZL40threadsafe_mem_leak_operator_new_nothrowj) refers to memoryleakdetector.o(.text._ZN18MemoryLeakDetector11allocMemoryEP19TestMemoryAllocatorjb) for MemoryLeakDetector::allocMemory(TestMemoryAllocator*, unsigned, bool)
    memoryleakwarningplugin.o(.text._ZL40threadsafe_mem_leak_operator_new_nothrowj) refers to simplemutex.o(.text._ZN15ScopedMutexLockD2Ev) for ScopedMutexLock::~ScopedMutexLock()
    memoryleakwarningplugin.o(.ARM.exidx.text._ZL40threadsafe_mem_leak_operator_new_nothrowj) refers to memoryleakwarningplugin.o(.text._ZL40threadsafe_mem_leak_operator_new_nothrowj) for [Anonymous Symbol]
    memoryleakwarningplugin.o(.text._ZL38threadsafe_mem_leak_operator_new_debugjPKcj) refers to memoryleakwarningplugin.o(.text._ZN18MemLeakScopedMutexC2Ev) for MemLeakScopedMutex::MemLeakScopedMutex__sub_object()
    memoryleakwarningplugin.o(.text._ZL38threadsafe_mem_leak_operator_new_debugjPKcj) refers to memoryleakwarningplugin.o(.text._ZN23MemoryLeakWarningPlugin17getGlobalDetectorEv) for MemoryLeakWarningPlugin::getGlobalDetector()
    memoryleakwarningplugin.o(.text._ZL38threadsafe_mem_leak_operator_new_debugjPKcj) refers to testmemoryallocator.o(.text._Z22getCurrentNewAllocatorv) for getCurrentNewAllocator()
    memoryleakwarningplugin.o(.text._ZL38threadsafe_mem_leak_operator_new_debugjPKcj) refers to memoryleakdetector.o(.text._ZN18MemoryLeakDetector11allocMemoryEP19TestMemoryAllocatorjPKcjb) for MemoryLeakDetector::allocMemory(TestMemoryAllocator*, unsigned, const char*, unsigned, bool)
    memoryleakwarningplugin.o(.text._ZL38threadsafe_mem_leak_operator_new_debugjPKcj) refers to simplemutex.o(.text._ZN15ScopedMutexLockD2Ev) for ScopedMutexLock::~ScopedMutexLock()
    memoryleakwarningplugin.o(.ARM.exidx.text._ZL38threadsafe_mem_leak_operator_new_debugjPKcj) refers to memoryleakwarningplugin.o(.text._ZL38threadsafe_mem_leak_operator_new_debugjPKcj) for [Anonymous Symbol]
    memoryleakwarningplugin.o(.text._ZL38threadsafe_mem_leak_operator_new_arrayj) refers to memoryleakwarningplugin.o(.text._ZN18MemLeakScopedMutexC2Ev) for MemLeakScopedMutex::MemLeakScopedMutex__sub_object()
    memoryleakwarningplugin.o(.text._ZL38threadsafe_mem_leak_operator_new_arrayj) refers to memoryleakwarningplugin.o(.text._ZN23MemoryLeakWarningPlugin17getGlobalDetectorEv) for MemoryLeakWarningPlugin::getGlobalDetector()
    memoryleakwarningplugin.o(.text._ZL38threadsafe_mem_leak_operator_new_arrayj) refers to testmemoryallocator.o(.text._Z27getCurrentNewArrayAllocatorv) for getCurrentNewArrayAllocator()
    memoryleakwarningplugin.o(.text._ZL38threadsafe_mem_leak_operator_new_arrayj) refers to memoryleakdetector.o(.text._ZN18MemoryLeakDetector11allocMemoryEP19TestMemoryAllocatorjb) for MemoryLeakDetector::allocMemory(TestMemoryAllocator*, unsigned, bool)
    memoryleakwarningplugin.o(.text._ZL38threadsafe_mem_leak_operator_new_arrayj) refers to simplemutex.o(.text._ZN15ScopedMutexLockD2Ev) for ScopedMutexLock::~ScopedMutexLock()
    memoryleakwarningplugin.o(.ARM.exidx.text._ZL38threadsafe_mem_leak_operator_new_arrayj) refers to memoryleakwarningplugin.o(.text._ZL38threadsafe_mem_leak_operator_new_arrayj) for [Anonymous Symbol]
    memoryleakwarningplugin.o(.text._ZL46threadsafe_mem_leak_operator_new_array_nothrowj) refers to memoryleakwarningplugin.o(.text._ZN18MemLeakScopedMutexC2Ev) for MemLeakScopedMutex::MemLeakScopedMutex__sub_object()
    memoryleakwarningplugin.o(.text._ZL46threadsafe_mem_leak_operator_new_array_nothrowj) refers to memoryleakwarningplugin.o(.text._ZN23MemoryLeakWarningPlugin17getGlobalDetectorEv) for MemoryLeakWarningPlugin::getGlobalDetector()
    memoryleakwarningplugin.o(.text._ZL46threadsafe_mem_leak_operator_new_array_nothrowj) refers to testmemoryallocator.o(.text._Z27getCurrentNewArrayAllocatorv) for getCurrentNewArrayAllocator()
    memoryleakwarningplugin.o(.text._ZL46threadsafe_mem_leak_operator_new_array_nothrowj) refers to memoryleakdetector.o(.text._ZN18MemoryLeakDetector11allocMemoryEP19TestMemoryAllocatorjb) for MemoryLeakDetector::allocMemory(TestMemoryAllocator*, unsigned, bool)
    memoryleakwarningplugin.o(.text._ZL46threadsafe_mem_leak_operator_new_array_nothrowj) refers to simplemutex.o(.text._ZN15ScopedMutexLockD2Ev) for ScopedMutexLock::~ScopedMutexLock()
    memoryleakwarningplugin.o(.ARM.exidx.text._ZL46threadsafe_mem_leak_operator_new_array_nothrowj) refers to memoryleakwarningplugin.o(.text._ZL46threadsafe_mem_leak_operator_new_array_nothrowj) for [Anonymous Symbol]
    memoryleakwarningplugin.o(.text._ZL44threadsafe_mem_leak_operator_new_array_debugjPKcj) refers to memoryleakwarningplugin.o(.text._ZN18MemLeakScopedMutexC2Ev) for MemLeakScopedMutex::MemLeakScopedMutex__sub_object()
    memoryleakwarningplugin.o(.text._ZL44threadsafe_mem_leak_operator_new_array_debugjPKcj) refers to memoryleakwarningplugin.o(.text._ZN23MemoryLeakWarningPlugin17getGlobalDetectorEv) for MemoryLeakWarningPlugin::getGlobalDetector()
    memoryleakwarningplugin.o(.text._ZL44threadsafe_mem_leak_operator_new_array_debugjPKcj) refers to testmemoryallocator.o(.text._Z27getCurrentNewArrayAllocatorv) for getCurrentNewArrayAllocator()
    memoryleakwarningplugin.o(.text._ZL44threadsafe_mem_leak_operator_new_array_debugjPKcj) refers to memoryleakdetector.o(.text._ZN18MemoryLeakDetector11allocMemoryEP19TestMemoryAllocatorjPKcjb) for MemoryLeakDetector::allocMemory(TestMemoryAllocator*, unsigned, const char*, unsigned, bool)
    memoryleakwarningplugin.o(.text._ZL44threadsafe_mem_leak_operator_new_array_debugjPKcj) refers to simplemutex.o(.text._ZN15ScopedMutexLockD2Ev) for ScopedMutexLock::~ScopedMutexLock()
    memoryleakwarningplugin.o(.ARM.exidx.text._ZL44threadsafe_mem_leak_operator_new_array_debugjPKcj) refers to memoryleakwarningplugin.o(.text._ZL44threadsafe_mem_leak_operator_new_array_debugjPKcj) for [Anonymous Symbol]
    memoryleakwarningplugin.o(.text._ZL35threadsafe_mem_leak_operator_deletePv) refers to memoryleakwarningplugin.o(.text._ZN18MemLeakScopedMutexC2Ev) for MemLeakScopedMutex::MemLeakScopedMutex__sub_object()
    memoryleakwarningplugin.o(.text._ZL35threadsafe_mem_leak_operator_deletePv) refers to memoryleakwarningplugin.o(.text._ZN23MemoryLeakWarningPlugin17getGlobalDetectorEv) for MemoryLeakWarningPlugin::getGlobalDetector()
    memoryleakwarningplugin.o(.text._ZL35threadsafe_mem_leak_operator_deletePv) refers to memoryleakdetector.o(.text._ZN18MemoryLeakDetector16invalidateMemoryEPc) for MemoryLeakDetector::invalidateMemory(char*)
    memoryleakwarningplugin.o(.text._ZL35threadsafe_mem_leak_operator_deletePv) refers to testmemoryallocator.o(.text._Z22getCurrentNewAllocatorv) for getCurrentNewAllocator()
    memoryleakwarningplugin.o(.text._ZL35threadsafe_mem_leak_operator_deletePv) refers to memoryleakdetector.o(.text._ZN18MemoryLeakDetector13deallocMemoryEP19TestMemoryAllocatorPvb) for MemoryLeakDetector::deallocMemory(TestMemoryAllocator*, void*, bool)
    memoryleakwarningplugin.o(.text._ZL35threadsafe_mem_leak_operator_deletePv) refers to simplemutex.o(.text._ZN15ScopedMutexLockD2Ev) for ScopedMutexLock::~ScopedMutexLock()
    memoryleakwarningplugin.o(.ARM.exidx.text._ZL35threadsafe_mem_leak_operator_deletePv) refers to memoryleakwarningplugin.o(.text._ZL35threadsafe_mem_leak_operator_deletePv) for [Anonymous Symbol]
    memoryleakwarningplugin.o(.text._ZL41threadsafe_mem_leak_operator_delete_arrayPv) refers to memoryleakwarningplugin.o(.text._ZN18MemLeakScopedMutexC2Ev) for MemLeakScopedMutex::MemLeakScopedMutex__sub_object()
    memoryleakwarningplugin.o(.text._ZL41threadsafe_mem_leak_operator_delete_arrayPv) refers to memoryleakwarningplugin.o(.text._ZN23MemoryLeakWarningPlugin17getGlobalDetectorEv) for MemoryLeakWarningPlugin::getGlobalDetector()
    memoryleakwarningplugin.o(.text._ZL41threadsafe_mem_leak_operator_delete_arrayPv) refers to memoryleakdetector.o(.text._ZN18MemoryLeakDetector16invalidateMemoryEPc) for MemoryLeakDetector::invalidateMemory(char*)
    memoryleakwarningplugin.o(.text._ZL41threadsafe_mem_leak_operator_delete_arrayPv) refers to testmemoryallocator.o(.text._Z27getCurrentNewArrayAllocatorv) for getCurrentNewArrayAllocator()
    memoryleakwarningplugin.o(.text._ZL41threadsafe_mem_leak_operator_delete_arrayPv) refers to memoryleakdetector.o(.text._ZN18MemoryLeakDetector13deallocMemoryEP19TestMemoryAllocatorPvb) for MemoryLeakDetector::deallocMemory(TestMemoryAllocator*, void*, bool)
    memoryleakwarningplugin.o(.text._ZL41threadsafe_mem_leak_operator_delete_arrayPv) refers to simplemutex.o(.text._ZN15ScopedMutexLockD2Ev) for ScopedMutexLock::~ScopedMutexLock()
    memoryleakwarningplugin.o(.ARM.exidx.text._ZL41threadsafe_mem_leak_operator_delete_arrayPv) refers to memoryleakwarningplugin.o(.text._ZL41threadsafe_mem_leak_operator_delete_arrayPv) for [Anonymous Symbol]
    memoryleakwarningplugin.o(.text._ZL26threadsafe_mem_leak_mallocjPKcj) refers to memoryleakwarningplugin.o(.text._ZN18MemLeakScopedMutexC2Ev) for MemLeakScopedMutex::MemLeakScopedMutex__sub_object()
    memoryleakwarningplugin.o(.text._ZL26threadsafe_mem_leak_mallocjPKcj) refers to memoryleakwarningplugin.o(.text._ZN23MemoryLeakWarningPlugin17getGlobalDetectorEv) for MemoryLeakWarningPlugin::getGlobalDetector()
    memoryleakwarningplugin.o(.text._ZL26threadsafe_mem_leak_mallocjPKcj) refers to testmemoryallocator.o(.text._Z25getCurrentMallocAllocatorv) for getCurrentMallocAllocator()
    memoryleakwarningplugin.o(.text._ZL26threadsafe_mem_leak_mallocjPKcj) refers to memoryleakdetector.o(.text._ZN18MemoryLeakDetector11allocMemoryEP19TestMemoryAllocatorjPKcjb) for MemoryLeakDetector::allocMemory(TestMemoryAllocator*, unsigned, const char*, unsigned, bool)
    memoryleakwarningplugin.o(.text._ZL26threadsafe_mem_leak_mallocjPKcj) refers to simplemutex.o(.text._ZN15ScopedMutexLockD2Ev) for ScopedMutexLock::~ScopedMutexLock()
    memoryleakwarningplugin.o(.ARM.exidx.text._ZL26threadsafe_mem_leak_mallocjPKcj) refers to memoryleakwarningplugin.o(.text._ZL26threadsafe_mem_leak_mallocjPKcj) for [Anonymous Symbol]
    memoryleakwarningplugin.o(.text._ZL27threadsafe_mem_leak_reallocPvjPKcj) refers to memoryleakwarningplugin.o(.text._ZN18MemLeakScopedMutexC2Ev) for MemLeakScopedMutex::MemLeakScopedMutex__sub_object()
    memoryleakwarningplugin.o(.text._ZL27threadsafe_mem_leak_reallocPvjPKcj) refers to memoryleakwarningplugin.o(.text._ZN23MemoryLeakWarningPlugin17getGlobalDetectorEv) for MemoryLeakWarningPlugin::getGlobalDetector()
    memoryleakwarningplugin.o(.text._ZL27threadsafe_mem_leak_reallocPvjPKcj) refers to testmemoryallocator.o(.text._Z25getCurrentMallocAllocatorv) for getCurrentMallocAllocator()
    memoryleakwarningplugin.o(.text._ZL27threadsafe_mem_leak_reallocPvjPKcj) refers to memoryleakdetector.o(.text._ZN18MemoryLeakDetector13reallocMemoryEP19TestMemoryAllocatorPcjPKcjb) for MemoryLeakDetector::reallocMemory(TestMemoryAllocator*, char*, unsigned, const char*, unsigned, bool)
    memoryleakwarningplugin.o(.text._ZL27threadsafe_mem_leak_reallocPvjPKcj) refers to simplemutex.o(.text._ZN15ScopedMutexLockD2Ev) for ScopedMutexLock::~ScopedMutexLock()
    memoryleakwarningplugin.o(.ARM.exidx.text._ZL27threadsafe_mem_leak_reallocPvjPKcj) refers to memoryleakwarningplugin.o(.text._ZL27threadsafe_mem_leak_reallocPvjPKcj) for [Anonymous Symbol]
    memoryleakwarningplugin.o(.text._ZL24threadsafe_mem_leak_freePvPKcj) refers to memoryleakwarningplugin.o(.text._ZN18MemLeakScopedMutexC2Ev) for MemLeakScopedMutex::MemLeakScopedMutex__sub_object()
    memoryleakwarningplugin.o(.text._ZL24threadsafe_mem_leak_freePvPKcj) refers to memoryleakwarningplugin.o(.text._ZN23MemoryLeakWarningPlugin17getGlobalDetectorEv) for MemoryLeakWarningPlugin::getGlobalDetector()
    memoryleakwarningplugin.o(.text._ZL24threadsafe_mem_leak_freePvPKcj) refers to memoryleakdetector.o(.text._ZN18MemoryLeakDetector16invalidateMemoryEPc) for MemoryLeakDetector::invalidateMemory(char*)
    memoryleakwarningplugin.o(.text._ZL24threadsafe_mem_leak_freePvPKcj) refers to testmemoryallocator.o(.text._Z25getCurrentMallocAllocatorv) for getCurrentMallocAllocator()
    memoryleakwarningplugin.o(.text._ZL24threadsafe_mem_leak_freePvPKcj) refers to memoryleakdetector.o(.text._ZN18MemoryLeakDetector13deallocMemoryEP19TestMemoryAllocatorPvPKcjb) for MemoryLeakDetector::deallocMemory(TestMemoryAllocator*, void*, const char*, unsigned, bool)
    memoryleakwarningplugin.o(.text._ZL24threadsafe_mem_leak_freePvPKcj) refers to simplemutex.o(.text._ZN15ScopedMutexLockD2Ev) for ScopedMutexLock::~ScopedMutexLock()
    memoryleakwarningplugin.o(.ARM.exidx.text._ZL24threadsafe_mem_leak_freePvPKcj) refers to memoryleakwarningplugin.o(.text._ZL24threadsafe_mem_leak_freePvPKcj) for [Anonymous Symbol]
    memoryleakwarningplugin.o(.text._ZN23MemoryLeakWarningPlugin22areNewDeleteOverloadedEv) refers to memoryleakwarningplugin.o(.data..L_MergedGlobals) for [Anonymous Symbol]
    memoryleakwarningplugin.o(.text._ZN23MemoryLeakWarningPlugin22areNewDeleteOverloadedEv) refers to memoryleakwarningplugin.o(.text._ZL32threadsafe_mem_leak_operator_newj) for _ZL32threadsafe_mem_leak_operator_newj
    memoryleakwarningplugin.o(.text._ZN23MemoryLeakWarningPlugin22areNewDeleteOverloadedEv) refers to memoryleakwarningplugin.o(.text._ZL21mem_leak_operator_newj) for _ZL21mem_leak_operator_newj
    memoryleakwarningplugin.o(.ARM.exidx.text._ZN23MemoryLeakWarningPlugin22areNewDeleteOverloadedEv) refers to memoryleakwarningplugin.o(.text._ZN23MemoryLeakWarningPlugin22areNewDeleteOverloadedEv) for [Anonymous Symbol]
    memoryleakwarningplugin.o(.text._ZN23MemoryLeakWarningPlugin32saveAndDisableNewDeleteOverloadsEv) refers to memoryleakwarningplugin.o(.text._ZN23MemoryLeakWarningPlugin25turnOffNewDeleteOverloadsEv) for MemoryLeakWarningPlugin::turnOffNewDeleteOverloads()
    memoryleakwarningplugin.o(.text._ZN23MemoryLeakWarningPlugin32saveAndDisableNewDeleteOverloadsEv) refers to memoryleakwarningplugin.o(.bss._ZL12save_counter) for [Anonymous Symbol]
    memoryleakwarningplugin.o(.text._ZN23MemoryLeakWarningPlugin32saveAndDisableNewDeleteOverloadsEv) refers to memoryleakwarningplugin.o(.data..L_MergedGlobals) for [Anonymous Symbol]
    memoryleakwarningplugin.o(.ARM.exidx.text._ZN23MemoryLeakWarningPlugin32saveAndDisableNewDeleteOverloadsEv) refers to memoryleakwarningplugin.o(.text._ZN23MemoryLeakWarningPlugin32saveAndDisableNewDeleteOverloadsEv) for [Anonymous Symbol]
    memoryleakwarningplugin.o(.text._ZN23MemoryLeakWarningPlugin25restoreNewDeleteOverloadsEv) refers to memoryleakwarningplugin.o(.bss._ZL12save_counter) for [Anonymous Symbol]
    memoryleakwarningplugin.o(.text._ZN23MemoryLeakWarningPlugin25restoreNewDeleteOverloadsEv) refers to memoryleakwarningplugin.o(.data..L_MergedGlobals) for [Anonymous Symbol]
    memoryleakwarningplugin.o(.ARM.exidx.text._ZN23MemoryLeakWarningPlugin25restoreNewDeleteOverloadsEv) refers to memoryleakwarningplugin.o(.text._ZN23MemoryLeakWarningPlugin25restoreNewDeleteOverloadsEv) for [Anonymous Symbol]
    memoryleakwarningplugin.o(.text._Z26crash_on_allocation_numberj) refers to testmemoryallocator.o(.text._ZN26CrashOnAllocationAllocator18setNumberToCrashOnEj) for CrashOnAllocationAllocator::setNumberToCrashOn(unsigned)
    memoryleakwarningplugin.o(.text._Z26crash_on_allocation_numberj) refers to testmemoryallocator.o(.text._Z25setCurrentMallocAllocatorP19TestMemoryAllocator) for setCurrentMallocAllocator(TestMemoryAllocator*)
    memoryleakwarningplugin.o(.text._Z26crash_on_allocation_numberj) refers to testmemoryallocator.o(.text._Z22setCurrentNewAllocatorP19TestMemoryAllocator) for setCurrentNewAllocator(TestMemoryAllocator*)
    memoryleakwarningplugin.o(.text._Z26crash_on_allocation_numberj) refers to testmemoryallocator.o(.text._Z27setCurrentNewArrayAllocatorP19TestMemoryAllocator) for setCurrentNewArrayAllocator(TestMemoryAllocator*)
    memoryleakwarningplugin.o(.text._Z26crash_on_allocation_numberj) refers to cxa_guard.cpp.o(.text.__cxa_guard_acquire) for __cxa_guard_acquire
    memoryleakwarningplugin.o(.text._Z26crash_on_allocation_numberj) refers to testmemoryallocator.o(.text._ZN26CrashOnAllocationAllocatorC2Ev) for CrashOnAllocationAllocator::CrashOnAllocationAllocator()
    memoryleakwarningplugin.o(.text._Z26crash_on_allocation_numberj) refers to cxa_atexit.o(.text) for __cxa_atexit
    memoryleakwarningplugin.o(.text._Z26crash_on_allocation_numberj) refers to cxa_guard.cpp.o(.text.__cxa_guard_release) for __cxa_guard_release
    memoryleakwarningplugin.o(.text._Z26crash_on_allocation_numberj) refers to memoryleakwarningplugin.o(.bss..L_MergedGlobals.2) for [Anonymous Symbol]
    memoryleakwarningplugin.o(.text._Z26crash_on_allocation_numberj) refers to testmemoryallocator.o(.text._ZN19TestMemoryAllocatorD2Ev) for CrashOnAllocationAllocator::~CrashOnAllocationAllocator()
    memoryleakwarningplugin.o(.ARM.exidx.text._Z26crash_on_allocation_numberj) refers to memoryleakwarningplugin.o(.text._Z26crash_on_allocation_numberj) for [Anonymous Symbol]
    memoryleakwarningplugin.o(.text._ZN23MemoryLeakWarningPlugin17getGlobalDetectorEv) refers to memoryleakwarningplugin.o(.text._ZN23MemoryLeakWarningPlugin32saveAndDisableNewDeleteOverloadsEv) for MemoryLeakWarningPlugin::saveAndDisableNewDeleteOverloads()
    memoryleakwarningplugin.o(.text._ZN23MemoryLeakWarningPlugin17getGlobalDetectorEv) refers to memoryleakdetector.o(.text._ZN18MemoryLeakDetectorC2EP17MemoryLeakFailure) for MemoryLeakDetector::MemoryLeakDetector(MemoryLeakFailure*)
    memoryleakwarningplugin.o(.text._ZN23MemoryLeakWarningPlugin17getGlobalDetectorEv) refers to memoryleakwarningplugin.o(.text._ZN23MemoryLeakWarningPlugin25restoreNewDeleteOverloadsEv) for MemoryLeakWarningPlugin::restoreNewDeleteOverloads()
    memoryleakwarningplugin.o(.text._ZN23MemoryLeakWarningPlugin17getGlobalDetectorEv) refers to memoryleakwarningplugin.o(.bss..L_MergedGlobals.2) for [Anonymous Symbol]
    memoryleakwarningplugin.o(.text._ZN23MemoryLeakWarningPlugin17getGlobalDetectorEv) refers to memoryleakwarningplugin.o(.data..L_MergedGlobals) for [Anonymous Symbol]
    memoryleakwarningplugin.o(.text._ZN23MemoryLeakWarningPlugin17getGlobalDetectorEv) refers to memoryleakwarningplugin.o(.rodata._ZTV25MemoryLeakWarningReporter) for vtable for MemoryLeakWarningReporter
    memoryleakwarningplugin.o(.ARM.exidx.text._ZN23MemoryLeakWarningPlugin17getGlobalDetectorEv) refers to memoryleakwarningplugin.o(.text._ZN23MemoryLeakWarningPlugin17getGlobalDetectorEv) for [Anonymous Symbol]
    memoryleakwarningplugin.o(.text._ZN23MemoryLeakWarningPlugin24getGlobalFailureReporterEv) refers to memoryleakwarningplugin.o(.bss..L_MergedGlobals.2) for [Anonymous Symbol]
    memoryleakwarningplugin.o(.ARM.exidx.text._ZN23MemoryLeakWarningPlugin24getGlobalFailureReporterEv) refers to memoryleakwarningplugin.o(.text._ZN23MemoryLeakWarningPlugin24getGlobalFailureReporterEv) for [Anonymous Symbol]
    memoryleakwarningplugin.o(.ARM.exidx.text._ZN23MemoryLeakWarningPlugin62destroyGlobalDetectorAndTurnOffMemoryLeakDetectionInDestructorEb) refers to memoryleakwarningplugin.o(.text._ZN23MemoryLeakWarningPlugin62destroyGlobalDetectorAndTurnOffMemoryLeakDetectionInDestructorEb) for [Anonymous Symbol]
    memoryleakwarningplugin.o(.text._ZN23MemoryLeakWarningPlugin17setGlobalDetectorEP18MemoryLeakDetectorP17MemoryLeakFailure) refers to memoryleakwarningplugin.o(.bss..L_MergedGlobals.2) for [Anonymous Symbol]
    memoryleakwarningplugin.o(.ARM.exidx.text._ZN23MemoryLeakWarningPlugin17setGlobalDetectorEP18MemoryLeakDetectorP17MemoryLeakFailure) refers to memoryleakwarningplugin.o(.text._ZN23MemoryLeakWarningPlugin17setGlobalDetectorEP18MemoryLeakDetectorP17MemoryLeakFailure) for [Anonymous Symbol]
    memoryleakwarningplugin.o(.text._ZN23MemoryLeakWarningPlugin21destroyGlobalDetectorEv) refers to memoryleakwarningplugin.o(.text._ZN23MemoryLeakWarningPlugin25turnOffNewDeleteOverloadsEv) for MemoryLeakWarningPlugin::turnOffNewDeleteOverloads()
    memoryleakwarningplugin.o(.text._ZN23MemoryLeakWarningPlugin21destroyGlobalDetectorEv) refers to memoryleakwarningplugin.o(.bss..L_MergedGlobals.2) for [Anonymous Symbol]
    memoryleakwarningplugin.o(.ARM.exidx.text._ZN23MemoryLeakWarningPlugin21destroyGlobalDetectorEv) refers to memoryleakwarningplugin.o(.text._ZN23MemoryLeakWarningPlugin21destroyGlobalDetectorEv) for [Anonymous Symbol]
    memoryleakwarningplugin.o(.text._ZN23MemoryLeakWarningPlugin14getFirstPluginEv) refers to memoryleakwarningplugin.o(.bss._ZN23MemoryLeakWarningPlugin12firstPlugin_E) for MemoryLeakWarningPlugin::firstPlugin_
    memoryleakwarningplugin.o(.ARM.exidx.text._ZN23MemoryLeakWarningPlugin14getFirstPluginEv) refers to memoryleakwarningplugin.o(.text._ZN23MemoryLeakWarningPlugin14getFirstPluginEv) for [Anonymous Symbol]
    memoryleakwarningplugin.o(.ARM.exidx.text._ZN23MemoryLeakWarningPlugin21getMemoryLeakDetectorEv) refers to memoryleakwarningplugin.o(.text._ZN23MemoryLeakWarningPlugin21getMemoryLeakDetectorEv) for [Anonymous Symbol]
    memoryleakwarningplugin.o(.ARM.exidx.text._ZN23MemoryLeakWarningPlugin20ignoreAllLeaksInTestEv) refers to memoryleakwarningplugin.o(.text._ZN23MemoryLeakWarningPlugin20ignoreAllLeaksInTestEv) for [Anonymous Symbol]
    memoryleakwarningplugin.o(.ARM.exidx.text._ZN23MemoryLeakWarningPlugin17expectLeaksInTestEj) refers to memoryleakwarningplugin.o(.text._ZN23MemoryLeakWarningPlugin17expectLeaksInTestEj) for [Anonymous Symbol]
    memoryleakwarningplugin.o(.text._ZN23MemoryLeakWarningPluginC2ERK12SimpleStringP18MemoryLeakDetector) refers to testplugin.o(.text._ZN10TestPluginC2ERK12SimpleString) for TestPlugin::TestPlugin__sub_object(const SimpleString&)
    memoryleakwarningplugin.o(.text._ZN23MemoryLeakWarningPluginC2ERK12SimpleStringP18MemoryLeakDetector) refers to memoryleakwarningplugin.o(.text._ZN23MemoryLeakWarningPlugin17getGlobalDetectorEv) for MemoryLeakWarningPlugin::getGlobalDetector()
    memoryleakwarningplugin.o(.text._ZN23MemoryLeakWarningPluginC2ERK12SimpleStringP18MemoryLeakDetector) refers to memoryleakdetector.o(.text._ZN18MemoryLeakDetector6enableEv) for MemoryLeakDetector::enable()
    memoryleakwarningplugin.o(.text._ZN23MemoryLeakWarningPluginC2ERK12SimpleStringP18MemoryLeakDetector) refers to memoryleakwarningplugin.o(.rodata._ZTV23MemoryLeakWarningPlugin) for vtable for MemoryLeakWarningPlugin
    memoryleakwarningplugin.o(.text._ZN23MemoryLeakWarningPluginC2ERK12SimpleStringP18MemoryLeakDetector) refers to memoryleakwarningplugin.o(.bss._ZN23MemoryLeakWarningPlugin12firstPlugin_E) for MemoryLeakWarningPlugin::firstPlugin_
    memoryleakwarningplugin.o(.ARM.exidx.text._ZN23MemoryLeakWarningPluginC2ERK12SimpleStringP18MemoryLeakDetector) refers to memoryleakwarningplugin.o(.text._ZN23MemoryLeakWarningPluginC2ERK12SimpleStringP18MemoryLeakDetector) for [Anonymous Symbol]
    memoryleakwarningplugin.o(.text._ZN23MemoryLeakWarningPluginD2Ev) refers to memoryleakwarningplugin.o(.text._ZN23MemoryLeakWarningPlugin25turnOffNewDeleteOverloadsEv) for MemoryLeakWarningPlugin::turnOffNewDeleteOverloads()
    memoryleakwarningplugin.o(.text._ZN23MemoryLeakWarningPluginD2Ev) refers to memoryleakwarningplugin.o(.text._ZN23MemoryLeakWarningPlugin21destroyGlobalDetectorEv) for MemoryLeakWarningPlugin::destroyGlobalDetector()
    memoryleakwarningplugin.o(.text._ZN23MemoryLeakWarningPluginD2Ev) refers to testplugin.o(.text._ZN10TestPluginD2Ev) for TestPlugin::~TestPlugin__sub_object()
    memoryleakwarningplugin.o(.text._ZN23MemoryLeakWarningPluginD2Ev) refers to memoryleakwarningplugin.o(.rodata._ZTV23MemoryLeakWarningPlugin) for vtable for MemoryLeakWarningPlugin
    memoryleakwarningplugin.o(.ARM.exidx.text._ZN23MemoryLeakWarningPluginD2Ev) refers to memoryleakwarningplugin.o(.text._ZN23MemoryLeakWarningPluginD2Ev) for [Anonymous Symbol]
    memoryleakwarningplugin.o(.text._ZN23MemoryLeakWarningPluginD0Ev) refers to memoryleakwarningplugin.o(.text._ZN23MemoryLeakWarningPluginD2Ev) for MemoryLeakWarningPlugin::~MemoryLeakWarningPlugin__sub_object()
    memoryleakwarningplugin.o(.text._ZN23MemoryLeakWarningPluginD0Ev) refers to memoryleakwarningplugin.o(.data..L_MergedGlobals) for [Anonymous Symbol]
    memoryleakwarningplugin.o(.ARM.exidx.text._ZN23MemoryLeakWarningPluginD0Ev) refers to memoryleakwarningplugin.o(.text._ZN23MemoryLeakWarningPluginD0Ev) for [Anonymous Symbol]
    memoryleakwarningplugin.o(.text._ZN23MemoryLeakWarningPlugin13preTestActionER10UtestShellR10TestResult) refers to memoryleakdetector.o(.text._ZN18MemoryLeakDetector13startCheckingEv) for MemoryLeakDetector::startChecking()
    memoryleakwarningplugin.o(.ARM.exidx.text._ZN23MemoryLeakWarningPlugin13preTestActionER10UtestShellR10TestResult) refers to memoryleakwarningplugin.o(.text._ZN23MemoryLeakWarningPlugin13preTestActionER10UtestShellR10TestResult) for [Anonymous Symbol]
    memoryleakwarningplugin.o(.text._ZN23MemoryLeakWarningPlugin14postTestActionER10UtestShellR10TestResult) refers to memoryleakdetector.o(.text._ZN18MemoryLeakDetector12stopCheckingEv) for MemoryLeakDetector::stopChecking()
    memoryleakwarningplugin.o(.text._ZN23MemoryLeakWarningPlugin14postTestActionER10UtestShellR10TestResult) refers to memoryleakdetector.o(.text._ZN18MemoryLeakDetector16totalMemoryLeaksE13MemLeakPeriod) for MemoryLeakDetector::totalMemoryLeaks(MemLeakPeriod)
    memoryleakwarningplugin.o(.text._ZN23MemoryLeakWarningPlugin14postTestActionER10UtestShellR10TestResult) refers to simplestring.o(.text._Z16StringFromFormatPKcz) for StringFromFormat(const char*, ...)
    memoryleakwarningplugin.o(.text._ZN23MemoryLeakWarningPlugin14postTestActionER10UtestShellR10TestResult) refers to simplestring.o(.text._ZNK12SimpleString12asCharStringEv) for SimpleString::asCharString() const
    memoryleakwarningplugin.o(.text._ZN23MemoryLeakWarningPlugin14postTestActionER10UtestShellR10TestResult) refers to simplestring.o(.text._ZN12SimpleStringD2Ev) for SimpleString::~SimpleString()
    memoryleakwarningplugin.o(.text._ZN23MemoryLeakWarningPlugin14postTestActionER10UtestShellR10TestResult) refers to memoryleakdetector.o(.text._ZN18MemoryLeakDetector6reportE13MemLeakPeriod) for MemoryLeakDetector::report(MemLeakPeriod)
    memoryleakwarningplugin.o(.text._ZN23MemoryLeakWarningPlugin14postTestActionER10UtestShellR10TestResult) refers to simplestring.o(.text._ZN12SimpleStringC2EPKc) for SimpleString::SimpleString(const char*)
    memoryleakwarningplugin.o(.text._ZN23MemoryLeakWarningPlugin14postTestActionER10UtestShellR10TestResult) refers to testfailure.o(.text._ZN11TestFailureC2EP10UtestShellRK12SimpleString) for TestFailure::TestFailure(UtestShell*, const SimpleString&)
    memoryleakwarningplugin.o(.text._ZN23MemoryLeakWarningPlugin14postTestActionER10UtestShellR10TestResult) refers to testfailure.o(.text._ZN11TestFailureD2Ev) for TestFailure::~TestFailure()
    memoryleakwarningplugin.o(.text._ZN23MemoryLeakWarningPlugin14postTestActionER10UtestShellR10TestResult) refers to memoryleakdetector.o(.text._ZN18MemoryLeakDetector42markCheckingPeriodLeaksAsNonCheckingPeriodEv) for MemoryLeakDetector::markCheckingPeriodLeaksAsNonCheckingPeriod()
    memoryleakwarningplugin.o(.text._ZN23MemoryLeakWarningPlugin14postTestActionER10UtestShellR10TestResult) refers to memoryleakwarningplugin.o(.data..L_MergedGlobals) for [Anonymous Symbol]
    memoryleakwarningplugin.o(.text._ZN23MemoryLeakWarningPlugin14postTestActionER10UtestShellR10TestResult) refers to memoryleakwarningplugin.o(.text._ZL21mem_leak_operator_newj) for _ZL21mem_leak_operator_newj
    memoryleakwarningplugin.o(.text._ZN23MemoryLeakWarningPlugin14postTestActionER10UtestShellR10TestResult) refers to memoryleakwarningplugin.o(.text._ZL32threadsafe_mem_leak_operator_newj) for _ZL32threadsafe_mem_leak_operator_newj
    memoryleakwarningplugin.o(.ARM.exidx.text._ZN23MemoryLeakWarningPlugin14postTestActionER10UtestShellR10TestResult) refers to memoryleakwarningplugin.o(.text._ZN23MemoryLeakWarningPlugin14postTestActionER10UtestShellR10TestResult) for [Anonymous Symbol]
    memoryleakwarningplugin.o(.text._ZN23MemoryLeakWarningPlugin11FinalReportEj) refers to memoryleakdetector.o(.text._ZN18MemoryLeakDetector16totalMemoryLeaksE13MemLeakPeriod) for MemoryLeakDetector::totalMemoryLeaks(MemLeakPeriod)
    memoryleakwarningplugin.o(.text._ZN23MemoryLeakWarningPlugin11FinalReportEj) refers to memoryleakdetector.o(.text._ZN18MemoryLeakDetector6reportE13MemLeakPeriod) for MemoryLeakDetector::report(MemLeakPeriod)
    memoryleakwarningplugin.o(.text._ZN23MemoryLeakWarningPlugin11FinalReportEj) refers to memoryleakwarningplugin.o(.rodata.str1.1) for .L.str.1
    memoryleakwarningplugin.o(.ARM.exidx.text._ZN23MemoryLeakWarningPlugin11FinalReportEj) refers to memoryleakwarningplugin.o(.text._ZN23MemoryLeakWarningPlugin11FinalReportEj) for [Anonymous Symbol]
    memoryleakwarningplugin.o(.rodata._ZTV23MemoryLeakWarningPlugin) refers to memoryleakwarningplugin.o(.rodata._ZTI23MemoryLeakWarningPlugin) for typeinfo for MemoryLeakWarningPlugin
    memoryleakwarningplugin.o(.rodata._ZTV23MemoryLeakWarningPlugin) refers to memoryleakwarningplugin.o(.text._ZN23MemoryLeakWarningPluginD2Ev) for MemoryLeakWarningPlugin::~MemoryLeakWarningPlugin__sub_object()
    memoryleakwarningplugin.o(.rodata._ZTV23MemoryLeakWarningPlugin) refers to memoryleakwarningplugin.o(.text._ZN23MemoryLeakWarningPluginD0Ev) for MemoryLeakWarningPlugin::~MemoryLeakWarningPlugin__deallocating()
    memoryleakwarningplugin.o(.rodata._ZTV23MemoryLeakWarningPlugin) refers to memoryleakwarningplugin.o(.text._ZN23MemoryLeakWarningPlugin13preTestActionER10UtestShellR10TestResult) for MemoryLeakWarningPlugin::preTestAction(UtestShell&, TestResult&)
    memoryleakwarningplugin.o(.rodata._ZTV23MemoryLeakWarningPlugin) refers to memoryleakwarningplugin.o(.text._ZN23MemoryLeakWarningPlugin14postTestActionER10UtestShellR10TestResult) for MemoryLeakWarningPlugin::postTestAction(UtestShell&, TestResult&)
    memoryleakwarningplugin.o(.rodata._ZTV23MemoryLeakWarningPlugin) refers to memoryleakwarningplugin.o(.text._ZN10TestPlugin14parseArgumentsEiPKPKci) for TestPlugin::parseArguments(int, const char*const *, int)
    memoryleakwarningplugin.o(.rodata._ZTV23MemoryLeakWarningPlugin) refers to testplugin.o(.text._ZN10TestPlugin19runAllPreTestActionER10UtestShellR10TestResult) for TestPlugin::runAllPreTestAction(UtestShell&, TestResult&)
    memoryleakwarningplugin.o(.rodata._ZTV23MemoryLeakWarningPlugin) refers to testplugin.o(.text._ZN10TestPlugin20runAllPostTestActionER10UtestShellR10TestResult) for TestPlugin::runAllPostTestAction(UtestShell&, TestResult&)
    memoryleakwarningplugin.o(.rodata._ZTV23MemoryLeakWarningPlugin) refers to testplugin.o(.text._ZN10TestPlugin17parseAllArgumentsEiPKPKci) for TestPlugin::parseAllArguments(int, const char*const *, int)
    memoryleakwarningplugin.o(.rodata._ZTV23MemoryLeakWarningPlugin) refers to testplugin.o(.text._ZN10TestPlugin17parseAllArgumentsEiPPci) for TestPlugin::parseAllArguments(int, char**, int)
    memoryleakwarningplugin.o(.rodata._ZTV23MemoryLeakWarningPlugin) refers to testplugin.o(.text._ZN10TestPlugin9addPluginEPS_) for TestPlugin::addPlugin(TestPlugin*)
    memoryleakwarningplugin.o(.rodata._ZTV23MemoryLeakWarningPlugin) refers to testplugin.o(.text._ZN10TestPlugin18removePluginByNameERK12SimpleString) for TestPlugin::removePluginByName(const SimpleString&)
    memoryleakwarningplugin.o(.rodata._ZTV23MemoryLeakWarningPlugin) refers to testplugin.o(.text._ZN10TestPlugin7getNextEv) for TestPlugin::getNext()
    memoryleakwarningplugin.o(.rodata._ZTV23MemoryLeakWarningPlugin) refers to testplugin.o(.text._ZN10TestPlugin7disableEv) for TestPlugin::disable()
    memoryleakwarningplugin.o(.rodata._ZTV23MemoryLeakWarningPlugin) refers to testplugin.o(.text._ZN10TestPlugin6enableEv) for TestPlugin::enable()
    memoryleakwarningplugin.o(.rodata._ZTV23MemoryLeakWarningPlugin) refers to testplugin.o(.text._ZN10TestPlugin9isEnabledEv) for TestPlugin::isEnabled()
    memoryleakwarningplugin.o(.rodata._ZTV23MemoryLeakWarningPlugin) refers to memoryleakwarningplugin.o(.text._ZN23MemoryLeakWarningPlugin11FinalReportEj) for MemoryLeakWarningPlugin::FinalReport(unsigned)
    memoryleakwarningplugin.o(.rodata._ZTI23MemoryLeakWarningPlugin) refers to private_typeinfo.cpp.o(.rodata._ZTVN10__cxxabiv120__si_class_type_infoE) for vtable for __cxxabiv1::__si_class_type_info
    memoryleakwarningplugin.o(.rodata._ZTI23MemoryLeakWarningPlugin) refers to memoryleakwarningplugin.o(.rodata._ZTS23MemoryLeakWarningPlugin) for typeinfo name for MemoryLeakWarningPlugin
    memoryleakwarningplugin.o(.rodata._ZTI23MemoryLeakWarningPlugin) refers to testplugin.o(.rodata._ZTI10TestPlugin) for typeinfo for TestPlugin
    memoryleakwarningplugin.o(.data..L_MergedGlobals) refers to memoryleakwarningplugin.o(.text._ZL15mem_leak_mallocjPKcj) for _ZL15mem_leak_mallocjPKcj
    memoryleakwarningplugin.o(.data..L_MergedGlobals) refers to memoryleakwarningplugin.o(.text._ZL16mem_leak_reallocPvjPKcj) for _ZL16mem_leak_reallocPvjPKcj
    memoryleakwarningplugin.o(.data..L_MergedGlobals) refers to memoryleakwarningplugin.o(.text._ZL13mem_leak_freePvPKcj) for _ZL13mem_leak_freePvPKcj
    memoryleakwarningplugin.o(.data..L_MergedGlobals) refers to memoryleakwarningplugin.o(.text._ZL21mem_leak_operator_newj) for _ZL21mem_leak_operator_newj
    memoryleakwarningplugin.o(.data..L_MergedGlobals) refers to memoryleakwarningplugin.o(.text._ZL27mem_leak_operator_new_debugjPKcj) for _ZL27mem_leak_operator_new_debugjPKcj
    memoryleakwarningplugin.o(.data..L_MergedGlobals) refers to memoryleakwarningplugin.o(.text._ZL24mem_leak_operator_deletePv) for _ZL24mem_leak_operator_deletePv
    memoryleakwarningplugin.o(.data..L_MergedGlobals) refers to memoryleakwarningplugin.o(.text._ZL27mem_leak_operator_new_arrayj) for _ZL27mem_leak_operator_new_arrayj
    memoryleakwarningplugin.o(.data..L_MergedGlobals) refers to memoryleakwarningplugin.o(.text._ZL33mem_leak_operator_new_array_debugjPKcj) for _ZL33mem_leak_operator_new_array_debugjPKcj
    memoryleakwarningplugin.o(.data..L_MergedGlobals) refers to memoryleakwarningplugin.o(.text._ZL30mem_leak_operator_delete_arrayPv) for _ZL30mem_leak_operator_delete_arrayPv
    memoryleakwarningplugin.o(.data..L_MergedGlobals) refers to memoryleakwarningplugin.o(.text._ZL29mem_leak_operator_new_nothrowj) for _ZL29mem_leak_operator_new_nothrowj
    memoryleakwarningplugin.o(.data..L_MergedGlobals) refers to memoryleakwarningplugin.o(.text._ZL35mem_leak_operator_new_array_nothrowj) for _ZL35mem_leak_operator_new_array_nothrowj
    utest.o(.text._Z13doubles_equalddd) refers to daddsub_clz.o(x$fpl$dsub) for __aeabi_dsub
    utest.o(.text._Z13doubles_equalddd) refers to dcmp.o(x$fpl$fcmp) for __aeabi_dcmple
    utest.o(.text._Z13doubles_equalddd) refers to utestplatform.o(.data.PlatformSpecificIsNan) for PlatformSpecificIsNan
    utest.o(.text._Z13doubles_equalddd) refers to utestplatform.o(.data.PlatformSpecificIsInf) for PlatformSpecificIsInf
    utest.o(.text._Z13doubles_equalddd) refers to utestplatform.o(.data.PlatformSpecificFabs) for PlatformSpecificFabs
    utest.o(.ARM.exidx.text._Z13doubles_equalddd) refers to utest.o(.text._Z13doubles_equalddd) for [Anonymous Symbol]
    utest.o(.text._ZN22OutsideTestRunnerUTest8instanceEv) refers to cxa_guard.cpp.o(.text.__cxa_guard_acquire) for __cxa_guard_acquire
    utest.o(.text._ZN22OutsideTestRunnerUTest8instanceEv) refers to utest.o(.text._ZN22OutsideTestRunnerUTestC2Ev) for OutsideTestRunnerUTest::OutsideTestRunnerUTest__sub_object()
    utest.o(.text._ZN22OutsideTestRunnerUTest8instanceEv) refers to cxa_atexit.o(.text) for __cxa_atexit
    utest.o(.text._ZN22OutsideTestRunnerUTest8instanceEv) refers to cxa_guard.cpp.o(.text.__cxa_guard_release) for __cxa_guard_release
    utest.o(.text._ZN22OutsideTestRunnerUTest8instanceEv) refers to utest.o(.bss..L_MergedGlobals.26) for [Anonymous Symbol]
    utest.o(.text._ZN22OutsideTestRunnerUTest8instanceEv) refers to utest.o(.text._ZN22OutsideTestRunnerUTestD2Ev) for OutsideTestRunnerUTest::~OutsideTestRunnerUTest__sub_object()
    utest.o(.ARM.exidx.text._ZN22OutsideTestRunnerUTest8instanceEv) refers to utest.o(.text._ZN22OutsideTestRunnerUTest8instanceEv) for [Anonymous Symbol]
    utest.o(.text._ZN10UtestShellC2Ev) refers to utest.o(.rodata.str1.1) for .L.str.3
    utest.o(.text._ZN10UtestShellC2Ev) refers to utest.o(.rodata._ZTV10UtestShell) for vtable for UtestShell
    utest.o(.ARM.exidx.text._ZN10UtestShellC2Ev) refers to utest.o(.text._ZN10UtestShellC2Ev) for [Anonymous Symbol]
    utest.o(.text._ZN10UtestShellC2EPKcS1_S1_j) refers to utest.o(.rodata._ZTV10UtestShell) for vtable for UtestShell
    utest.o(.ARM.exidx.text._ZN10UtestShellC2EPKcS1_S1_j) refers to utest.o(.text._ZN10UtestShellC2EPKcS1_S1_j) for [Anonymous Symbol]
    utest.o(.text._ZN10UtestShellC2EPKcS1_S1_jPS_) refers to utest.o(.rodata._ZTV10UtestShell) for vtable for UtestShell
    utest.o(.ARM.exidx.text._ZN10UtestShellC2EPKcS1_S1_jPS_) refers to utest.o(.text._ZN10UtestShellC2EPKcS1_S1_jPS_) for [Anonymous Symbol]
    utest.o(.ARM.exidx.text._ZN10UtestShellD2Ev) refers to utest.o(.text._ZN10UtestShellD2Ev) for [Anonymous Symbol]
    utest.o(.text._ZN10UtestShellD0Ev) refers to memoryleakwarningplugin.o(.text._ZdlPv) for operator delete (void*)
    utest.o(.ARM.exidx.text._ZN10UtestShellD0Ev) refers to utest.o(.text._ZN10UtestShellD0Ev) for [Anonymous Symbol]
    utest.o(.text._ZN10UtestShell14setCrashMethodEPFvvE) refers to utest.o(.data._ZL21pleaseCrashMeRightNow) for [Anonymous Symbol]
    utest.o(.ARM.exidx.text._ZN10UtestShell14setCrashMethodEPFvvE) refers to utest.o(.text._ZN10UtestShell14setCrashMethodEPFvvE) for [Anonymous Symbol]
    utest.o(.text._ZN10UtestShell16resetCrashMethodEv) refers to utest.o(.data._ZL21pleaseCrashMeRightNow) for [Anonymous Symbol]
    utest.o(.text._ZN10UtestShell16resetCrashMethodEv) refers to utest.o(.text._ZL18defaultCrashMethodv) for _ZL18defaultCrashMethodv
    utest.o(.ARM.exidx.text._ZN10UtestShell16resetCrashMethodEv) refers to utest.o(.text._ZN10UtestShell16resetCrashMethodEv) for [Anonymous Symbol]
    utest.o(.ARM.exidx.text._ZL18defaultCrashMethodv) refers to utest.o(.text._ZL18defaultCrashMethodv) for [Anonymous Symbol]
    utest.o(.text._ZN10UtestShell5crashEv) refers to utest.o(.data._ZL21pleaseCrashMeRightNow) for [Anonymous Symbol]
    utest.o(.ARM.exidx.text._ZN10UtestShell5crashEv) refers to utest.o(.text._ZN10UtestShell5crashEv) for [Anonymous Symbol]
    utest.o(.text._ZN10UtestShell10runOneTestEP10TestPluginR10TestResult) refers to utest.o(.text._ZL33helperDoRunOneTestSeperateProcessPv) for _ZL33helperDoRunOneTestSeperateProcessPv
    utest.o(.text._ZN10UtestShell10runOneTestEP10TestPluginR10TestResult) refers to utest.o(.text._ZL34helperDoRunOneTestInCurrentProcessPv) for _ZL34helperDoRunOneTestInCurrentProcessPv
    utest.o(.text._ZN10UtestShell10runOneTestEP10TestPluginR10TestResult) refers to utestplatform.o(.data.PlatformSpecificSetJmp) for PlatformSpecificSetJmp
    utest.o(.ARM.exidx.text._ZN10UtestShell10runOneTestEP10TestPluginR10TestResult) refers to utest.o(.text._ZN10UtestShell10runOneTestEP10TestPluginR10TestResult) for [Anonymous Symbol]
    utest.o(.text._ZL33helperDoRunOneTestSeperateProcessPv) refers to utestplatform.o(.data.PlatformSpecificRunTestInASeperateProcess) for PlatformSpecificRunTestInASeperateProcess
    utest.o(.ARM.exidx.text._ZL33helperDoRunOneTestSeperateProcessPv) refers to utest.o(.text._ZL33helperDoRunOneTestSeperateProcessPv) for [Anonymous Symbol]
    utest.o(.ARM.exidx.text._ZL34helperDoRunOneTestInCurrentProcessPv) refers to utest.o(.text._ZL34helperDoRunOneTestInCurrentProcessPv) for [Anonymous Symbol]
    utest.o(.text._ZN10UtestShell10createTestEv) refers to memoryleakwarningplugin.o(.text._ZnwjPKci) for operator new(unsigned, const char*, int)
    utest.o(.text._ZN10UtestShell10createTestEv) refers to utest.o(.rodata.str1.1) for .L.str.4
    utest.o(.text._ZN10UtestShell10createTestEv) refers to utest.o(.rodata._ZTV5Utest) for vtable for Utest
    utest.o(.ARM.exidx.text._ZN10UtestShell10createTestEv) refers to utest.o(.text._ZN10UtestShell10createTestEv) for [Anonymous Symbol]
    utest.o(.ARM.exidx.text._ZN10UtestShell11destroyTestEP5Utest) refers to utest.o(.text._ZN10UtestShell11destroyTestEP5Utest) for [Anonymous Symbol]
    utest.o(.text._ZN10UtestShell26runOneTestInCurrentProcessEP10TestPluginR10TestResult) refers to utest.o(.text._ZN10UtestShell10getCurrentEv) for UtestShell::getCurrent()
    utest.o(.text._ZN10UtestShell26runOneTestInCurrentProcessEP10TestPluginR10TestResult) refers to utest.o(.text._ZN10UtestShell13getTestResultEv) for UtestShell::getTestResult()
    utest.o(.text._ZN10UtestShell26runOneTestInCurrentProcessEP10TestPluginR10TestResult) refers to utest.o(.rodata.str1.1) for .L.str.5
    utest.o(.text._ZN10UtestShell26runOneTestInCurrentProcessEP10TestPluginR10TestResult) refers to utest.o(.bss..L_MergedGlobals.26) for [Anonymous Symbol]
    utest.o(.ARM.exidx.text._ZN10UtestShell26runOneTestInCurrentProcessEP10TestPluginR10TestResult) refers to utest.o(.text._ZN10UtestShell26runOneTestInCurrentProcessEP10TestPluginR10TestResult) for [Anonymous Symbol]
    utest.o(.text._ZN10UtestShell10getCurrentEv) refers to utest.o(.text._ZN22OutsideTestRunnerUTest8instanceEv) for OutsideTestRunnerUTest::instance()
    utest.o(.text._ZN10UtestShell10getCurrentEv) refers to utest.o(.bss..L_MergedGlobals.26) for [Anonymous Symbol]
    utest.o(.ARM.exidx.text._ZN10UtestShell10getCurrentEv) refers to utest.o(.text._ZN10UtestShell10getCurrentEv) for [Anonymous Symbol]
    utest.o(.text._ZN10UtestShell13getTestResultEv) refers to utest.o(.text._ZN22OutsideTestRunnerUTest8instanceEv) for OutsideTestRunnerUTest::instance()
    utest.o(.text._ZN10UtestShell13getTestResultEv) refers to utest.o(.bss..L_MergedGlobals.26) for [Anonymous Symbol]
    utest.o(.ARM.exidx.text._ZN10UtestShell13getTestResultEv) refers to utest.o(.text._ZN10UtestShell13getTestResultEv) for [Anonymous Symbol]
    utest.o(.text._ZN10UtestShell13setTestResultEP10TestResult) refers to utest.o(.bss..L_MergedGlobals.26) for [Anonymous Symbol]
    utest.o(.ARM.exidx.text._ZN10UtestShell13setTestResultEP10TestResult) refers to utest.o(.text._ZN10UtestShell13setTestResultEP10TestResult) for [Anonymous Symbol]
    utest.o(.text._ZN10UtestShell14setCurrentTestEPS_) refers to utest.o(.bss..L_MergedGlobals.26) for [Anonymous Symbol]
    utest.o(.ARM.exidx.text._ZN10UtestShell14setCurrentTestEPS_) refers to utest.o(.text._ZN10UtestShell14setCurrentTestEPS_) for [Anonymous Symbol]
    utest.o(.ARM.exidx.text._ZNK10UtestShell7getNextEv) refers to utest.o(.text._ZNK10UtestShell7getNextEv) for [Anonymous Symbol]
    utest.o(.ARM.exidx.text._ZN10UtestShell7addTestEPS_) refers to utest.o(.text._ZN10UtestShell7addTestEPS_) for [Anonymous Symbol]
    utest.o(.ARM.exidx.text._ZN10UtestShell10countTestsEv) refers to utest.o(.text._ZN10UtestShell10countTestsEv) for [Anonymous Symbol]
    utest.o(.text._ZNK10UtestShell12getMacroNameEv) refers to simplestring.o(.text._ZN12SimpleStringC2EPKc) for SimpleString::SimpleString(const char*)
    utest.o(.text._ZNK10UtestShell12getMacroNameEv) refers to utest.o(.rodata.str1.1) for .L.str.15
    utest.o(.ARM.exidx.text._ZNK10UtestShell12getMacroNameEv) refers to utest.o(.text._ZNK10UtestShell12getMacroNameEv) for [Anonymous Symbol]
    utest.o(.text._ZNK10UtestShell7getNameEv) refers to simplestring.o(.text._ZN12SimpleStringC2EPKc) for SimpleString::SimpleString(const char*)
    utest.o(.ARM.exidx.text._ZNK10UtestShell7getNameEv) refers to utest.o(.text._ZNK10UtestShell7getNameEv) for [Anonymous Symbol]
    utest.o(.text._ZNK10UtestShell8getGroupEv) refers to simplestring.o(.text._ZN12SimpleStringC2EPKc) for SimpleString::SimpleString(const char*)
    utest.o(.ARM.exidx.text._ZNK10UtestShell8getGroupEv) refers to utest.o(.text._ZNK10UtestShell8getGroupEv) for [Anonymous Symbol]
    utest.o(.text._ZNK10UtestShell16getFormattedNameEv) refers to simplestring.o(.text._ZN12SimpleStringpLEPKc) for SimpleString::operator +=(const char*)
    utest.o(.ARM.exidx.text._ZNK10UtestShell16getFormattedNameEv) refers to utest.o(.text._ZNK10UtestShell16getFormattedNameEv) for [Anonymous Symbol]
    utest.o(.ARM.exidx.text._ZNK10UtestShell9hasFailedEv) refers to utest.o(.text._ZNK10UtestShell9hasFailedEv) for [Anonymous Symbol]
    utest.o(.text._ZN10UtestShell10countCheckEv) refers to utest.o(.text._ZN10UtestShell13getTestResultEv) for UtestShell::getTestResult()
    utest.o(.ARM.exidx.text._ZN10UtestShell10countCheckEv) refers to utest.o(.text._ZN10UtestShell10countCheckEv) for [Anonymous Symbol]
    utest.o(.ARM.exidx.text._ZNK10UtestShell7willRunEv) refers to utest.o(.text._ZNK10UtestShell7willRunEv) for [Anonymous Symbol]
    utest.o(.ARM.exidx.text._ZNK10UtestShell22isRunInSeperateProcessEv) refers to utest.o(.text._ZNK10UtestShell22isRunInSeperateProcessEv) for [Anonymous Symbol]
    utest.o(.ARM.exidx.text._ZN10UtestShell23setRunInSeperateProcessEv) refers to utest.o(.text._ZN10UtestShell23setRunInSeperateProcessEv) for [Anonymous Symbol]
    utest.o(.ARM.exidx.text._ZN10UtestShell13setRunIgnoredEv) refers to utest.o(.text._ZN10UtestShell13setRunIgnoredEv) for [Anonymous Symbol]
    utest.o(.ARM.exidx.text._ZN10UtestShell11setFileNameEPKc) refers to utest.o(.text._ZN10UtestShell11setFileNameEPKc) for [Anonymous Symbol]
    utest.o(.ARM.exidx.text._ZN10UtestShell13setLineNumberEj) refers to utest.o(.text._ZN10UtestShell13setLineNumberEj) for [Anonymous Symbol]
    utest.o(.ARM.exidx.text._ZN10UtestShell12setGroupNameEPKc) refers to utest.o(.text._ZN10UtestShell12setGroupNameEPKc) for [Anonymous Symbol]
    utest.o(.ARM.exidx.text._ZN10UtestShell11setTestNameEPKc) refers to utest.o(.text._ZN10UtestShell11setTestNameEPKc) for [Anonymous Symbol]
    utest.o(.text._ZNK10UtestShell7getFileEv) refers to simplestring.o(.text._ZN12SimpleStringC2EPKc) for SimpleString::SimpleString(const char*)
    utest.o(.ARM.exidx.text._ZNK10UtestShell7getFileEv) refers to utest.o(.text._ZNK10UtestShell7getFileEv) for [Anonymous Symbol]
    utest.o(.ARM.exidx.text._ZNK10UtestShell13getLineNumberEv) refers to utest.o(.text._ZNK10UtestShell13getLineNumberEv) for [Anonymous Symbol]
    utest.o(.text._ZNK10UtestShell5matchEPKcPK10TestFilter) refers to simplestring.o(.text._ZN12SimpleStringC2EPKc) for SimpleString::SimpleString(const char*)
    utest.o(.text._ZNK10UtestShell5matchEPKcPK10TestFilter) refers to testfilter.o(.text._ZNK10TestFilter5matchERK12SimpleString) for TestFilter::match(const SimpleString&) const
    utest.o(.text._ZNK10UtestShell5matchEPKcPK10TestFilter) refers to simplestring.o(.text._ZN12SimpleStringD2Ev) for SimpleString::~SimpleString()
    utest.o(.text._ZNK10UtestShell5matchEPKcPK10TestFilter) refers to testfilter.o(.text._ZNK10TestFilter7getNextEv) for TestFilter::getNext() const
    utest.o(.ARM.exidx.text._ZNK10UtestShell5matchEPKcPK10TestFilter) refers to utest.o(.text._ZNK10UtestShell5matchEPKcPK10TestFilter) for [Anonymous Symbol]
    utest.o(.text._ZNK10UtestShell9shouldRunEPK10TestFilterS2_) refers to utest.o(.text._ZNK10UtestShell5matchEPKcPK10TestFilter) for UtestShell::match(const char*, const TestFilter*) const
    utest.o(.ARM.exidx.text._ZNK10UtestShell9shouldRunEPK10TestFilterS2_) refers to utest.o(.text._ZNK10UtestShell9shouldRunEPK10TestFilterS2_) for [Anonymous Symbol]
    utest.o(.text._ZN10UtestShell8failWithERK11TestFailure) refers to utest.o(.data..L_MergedGlobals) for [Anonymous Symbol]
    utest.o(.ARM.exidx.text._ZN10UtestShell8failWithERK11TestFailure) refers to utest.o(.text._ZN10UtestShell8failWithERK11TestFailure) for [Anonymous Symbol]
    utest.o(.text._ZN10UtestShell24getCurrentTestTerminatorEv) refers to utest.o(.data..L_MergedGlobals) for [Anonymous Symbol]
    utest.o(.ARM.exidx.text._ZN10UtestShell24getCurrentTestTerminatorEv) refers to utest.o(.text._ZN10UtestShell24getCurrentTestTerminatorEv) for [Anonymous Symbol]
    utest.o(.text._ZN10UtestShell8failWithERK11TestFailureRK14TestTerminator) refers to utest.o(.text._ZN10UtestShell13getTestResultEv) for UtestShell::getTestResult()
    utest.o(.ARM.exidx.text._ZN10UtestShell8failWithERK11TestFailureRK14TestTerminator) refers to utest.o(.text._ZN10UtestShell8failWithERK11TestFailureRK14TestTerminator) for [Anonymous Symbol]
    utest.o(.ARM.exidx.text._ZN10UtestShell8exitTestERK14TestTerminator) refers to utest.o(.text._ZN10UtestShell8exitTestERK14TestTerminator) for [Anonymous Symbol]
    utest.o(.text._ZN10UtestShell10assertTrueEbPKcS1_S1_S1_jRK14TestTerminator) refers to utest.o(.text._ZN10UtestShell13getTestResultEv) for UtestShell::getTestResult()
    utest.o(.text._ZN10UtestShell10assertTrueEbPKcS1_S1_S1_jRK14TestTerminator) refers to testfailure.o(.text._ZN12CheckFailureC2EP10UtestShellPKcjRK12SimpleStringS6_S6_) for CheckFailure::CheckFailure(UtestShell*, const char*, unsigned, const SimpleString&, const SimpleString&, const SimpleString&)
    utest.o(.text._ZN10UtestShell10assertTrueEbPKcS1_S1_S1_jRK14TestTerminator) refers to testfailure.o(.text._ZN11TestFailureD2Ev) for TestFailure::~TestFailure__sub_object()
    utest.o(.text._ZN10UtestShell10assertTrueEbPKcS1_S1_S1_jRK14TestTerminator) refers to simplestring.o(.text._ZN12SimpleStringC2EPKc) for SimpleString::SimpleString(const char*)
    utest.o(.text._ZN10UtestShell10assertTrueEbPKcS1_S1_S1_jRK14TestTerminator) refers to simplestring.o(.text._ZN12SimpleStringD2Ev) for SimpleString::~SimpleString()
    utest.o(.ARM.exidx.text._ZN10UtestShell10assertTrueEbPKcS1_S1_S1_jRK14TestTerminator) refers to utest.o(.text._ZN10UtestShell10assertTrueEbPKcS1_S1_S1_jRK14TestTerminator) for [Anonymous Symbol]
    utest.o(.text._ZN10UtestShell4failEPKcS1_jRK14TestTerminator) refers to utest.o(.text._ZN10UtestShell13getTestResultEv) for UtestShell::getTestResult()
    utest.o(.text._ZN10UtestShell4failEPKcS1_jRK14TestTerminator) refers to simplestring.o(.text._ZN12SimpleStringC2EPKc) for SimpleString::SimpleString(const char*)
    utest.o(.text._ZN10UtestShell4failEPKcS1_jRK14TestTerminator) refers to testfailure.o(.text._ZN11FailFailureC2EP10UtestShellPKcjRK12SimpleString) for FailFailure::FailFailure(UtestShell*, const char*, unsigned, const SimpleString&)
    utest.o(.text._ZN10UtestShell4failEPKcS1_jRK14TestTerminator) refers to testfailure.o(.text._ZN11TestFailureD2Ev) for TestFailure::~TestFailure__sub_object()
    utest.o(.text._ZN10UtestShell4failEPKcS1_jRK14TestTerminator) refers to simplestring.o(.text._ZN12SimpleStringD2Ev) for SimpleString::~SimpleString()
    utest.o(.ARM.exidx.text._ZN10UtestShell4failEPKcS1_jRK14TestTerminator) refers to utest.o(.text._ZN10UtestShell4failEPKcS1_jRK14TestTerminator) for [Anonymous Symbol]
    utest.o(.text._ZN10UtestShell15assertCstrEqualEPKcS1_S1_S1_jRK14TestTerminator) refers to utest.o(.text._ZN10UtestShell13getTestResultEv) for UtestShell::getTestResult()
    utest.o(.text._ZN10UtestShell15assertCstrEqualEPKcS1_S1_S1_jRK14TestTerminator) refers to simplestring.o(.text._ZN12SimpleStringC2EPKc) for SimpleString::SimpleString(const char*)
    utest.o(.text._ZN10UtestShell15assertCstrEqualEPKcS1_S1_S1_jRK14TestTerminator) refers to testfailure.o(.text._ZN18StringEqualFailureC2EP10UtestShellPKcjS3_S3_RK12SimpleString) for StringEqualFailure::StringEqualFailure(UtestShell*, const char*, unsigned, const char*, const char*, const SimpleString&)
    utest.o(.text._ZN10UtestShell15assertCstrEqualEPKcS1_S1_S1_jRK14TestTerminator) refers to testfailure.o(.text._ZN11TestFailureD2Ev) for TestFailure::~TestFailure__sub_object()
    utest.o(.text._ZN10UtestShell15assertCstrEqualEPKcS1_S1_S1_jRK14TestTerminator) refers to simplestring.o(.text._ZN12SimpleStringD2Ev) for SimpleString::~SimpleString()
    utest.o(.text._ZN10UtestShell15assertCstrEqualEPKcS1_S1_S1_jRK14TestTerminator) refers to simplestring.o(.text._ZN12SimpleString6StrCmpEPKcS1_) for SimpleString::StrCmp(const char*, const char*)
    utest.o(.ARM.exidx.text._ZN10UtestShell15assertCstrEqualEPKcS1_S1_S1_jRK14TestTerminator) refers to utest.o(.text._ZN10UtestShell15assertCstrEqualEPKcS1_S1_S1_jRK14TestTerminator) for [Anonymous Symbol]
    utest.o(.text._ZN10UtestShell16assertCstrNEqualEPKcS1_jS1_S1_jRK14TestTerminator) refers to utest.o(.text._ZN10UtestShell13getTestResultEv) for UtestShell::getTestResult()
    utest.o(.text._ZN10UtestShell16assertCstrNEqualEPKcS1_jS1_S1_jRK14TestTerminator) refers to simplestring.o(.text._ZN12SimpleStringC2EPKc) for SimpleString::SimpleString(const char*)
    utest.o(.text._ZN10UtestShell16assertCstrNEqualEPKcS1_jS1_S1_jRK14TestTerminator) refers to testfailure.o(.text._ZN18StringEqualFailureC2EP10UtestShellPKcjS3_S3_RK12SimpleString) for StringEqualFailure::StringEqualFailure(UtestShell*, const char*, unsigned, const char*, const char*, const SimpleString&)
    utest.o(.text._ZN10UtestShell16assertCstrNEqualEPKcS1_jS1_S1_jRK14TestTerminator) refers to testfailure.o(.text._ZN11TestFailureD2Ev) for TestFailure::~TestFailure__sub_object()
    utest.o(.text._ZN10UtestShell16assertCstrNEqualEPKcS1_jS1_S1_jRK14TestTerminator) refers to simplestring.o(.text._ZN12SimpleStringD2Ev) for SimpleString::~SimpleString()
    utest.o(.text._ZN10UtestShell16assertCstrNEqualEPKcS1_jS1_S1_jRK14TestTerminator) refers to simplestring.o(.text._ZN12SimpleString7StrNCmpEPKcS1_j) for SimpleString::StrNCmp(const char*, const char*, unsigned)
    utest.o(.ARM.exidx.text._ZN10UtestShell16assertCstrNEqualEPKcS1_jS1_S1_jRK14TestTerminator) refers to utest.o(.text._ZN10UtestShell16assertCstrNEqualEPKcS1_jS1_S1_jRK14TestTerminator) for [Anonymous Symbol]
    utest.o(.text._ZN10UtestShell21assertCstrNoCaseEqualEPKcS1_S1_S1_j) refers to utest.o(.text._ZN10UtestShell13getTestResultEv) for UtestShell::getTestResult()
    utest.o(.text._ZN10UtestShell21assertCstrNoCaseEqualEPKcS1_S1_S1_j) refers to simplestring.o(.text._ZN12SimpleStringC2EPKc) for SimpleString::SimpleString(const char*)
    utest.o(.text._ZN10UtestShell21assertCstrNoCaseEqualEPKcS1_S1_S1_j) refers to testfailure.o(.text._ZN24StringEqualNoCaseFailureC2EP10UtestShellPKcjS3_S3_RK12SimpleString) for StringEqualNoCaseFailure::StringEqualNoCaseFailure(UtestShell*, const char*, unsigned, const char*, const char*, const SimpleString&)
    utest.o(.text._ZN10UtestShell21assertCstrNoCaseEqualEPKcS1_S1_S1_j) refers to testfailure.o(.text._ZN11TestFailureD2Ev) for TestFailure::~TestFailure__sub_object()
    utest.o(.text._ZN10UtestShell21assertCstrNoCaseEqualEPKcS1_S1_S1_j) refers to simplestring.o(.text._ZN12SimpleStringD2Ev) for SimpleString::~SimpleString()
    utest.o(.text._ZN10UtestShell21assertCstrNoCaseEqualEPKcS1_S1_S1_j) refers to simplestring.o(.text._ZNK12SimpleString12equalsNoCaseERKS_) for SimpleString::equalsNoCase(const SimpleString&) const
    utest.o(.ARM.exidx.text._ZN10UtestShell21assertCstrNoCaseEqualEPKcS1_S1_S1_j) refers to utest.o(.text._ZN10UtestShell21assertCstrNoCaseEqualEPKcS1_S1_S1_j) for [Anonymous Symbol]
    utest.o(.text._ZN10UtestShell18assertCstrContainsEPKcS1_S1_S1_j) refers to utest.o(.text._ZN10UtestShell13getTestResultEv) for UtestShell::getTestResult()
    utest.o(.text._ZN10UtestShell18assertCstrContainsEPKcS1_S1_S1_j) refers to testfailure.o(.text._ZN15ContainsFailureC2EP10UtestShellPKcjRK12SimpleStringS6_S6_) for ContainsFailure::ContainsFailure(UtestShell*, const char*, unsigned, const SimpleString&, const SimpleString&, const SimpleString&)
    utest.o(.text._ZN10UtestShell18assertCstrContainsEPKcS1_S1_S1_j) refers to testfailure.o(.text._ZN11TestFailureD2Ev) for TestFailure::~TestFailure__sub_object()
    utest.o(.text._ZN10UtestShell18assertCstrContainsEPKcS1_S1_S1_j) refers to simplestring.o(.text._ZN12SimpleStringC2EPKc) for SimpleString::SimpleString(const char*)
    utest.o(.text._ZN10UtestShell18assertCstrContainsEPKcS1_S1_S1_j) refers to simplestring.o(.text._ZNK12SimpleString8containsERKS_) for SimpleString::contains(const SimpleString&) const
    utest.o(.text._ZN10UtestShell18assertCstrContainsEPKcS1_S1_S1_j) refers to simplestring.o(.text._ZN12SimpleStringD2Ev) for SimpleString::~SimpleString()
    utest.o(.ARM.exidx.text._ZN10UtestShell18assertCstrContainsEPKcS1_S1_S1_j) refers to utest.o(.text._ZN10UtestShell18assertCstrContainsEPKcS1_S1_S1_j) for [Anonymous Symbol]
    utest.o(.text._ZN10UtestShell24assertCstrNoCaseContainsEPKcS1_S1_S1_j) refers to utest.o(.text._ZN10UtestShell13getTestResultEv) for UtestShell::getTestResult()
    utest.o(.text._ZN10UtestShell24assertCstrNoCaseContainsEPKcS1_S1_S1_j) refers to testfailure.o(.text._ZN15ContainsFailureC2EP10UtestShellPKcjRK12SimpleStringS6_S6_) for ContainsFailure::ContainsFailure(UtestShell*, const char*, unsigned, const SimpleString&, const SimpleString&, const SimpleString&)
    utest.o(.text._ZN10UtestShell24assertCstrNoCaseContainsEPKcS1_S1_S1_j) refers to testfailure.o(.text._ZN11TestFailureD2Ev) for TestFailure::~TestFailure__sub_object()
    utest.o(.text._ZN10UtestShell24assertCstrNoCaseContainsEPKcS1_S1_S1_j) refers to simplestring.o(.text._ZN12SimpleStringC2EPKc) for SimpleString::SimpleString(const char*)
    utest.o(.text._ZN10UtestShell24assertCstrNoCaseContainsEPKcS1_S1_S1_j) refers to simplestring.o(.text._ZNK12SimpleString14containsNoCaseERKS_) for SimpleString::containsNoCase(const SimpleString&) const
    utest.o(.text._ZN10UtestShell24assertCstrNoCaseContainsEPKcS1_S1_S1_j) refers to simplestring.o(.text._ZN12SimpleStringD2Ev) for SimpleString::~SimpleString()
    utest.o(.ARM.exidx.text._ZN10UtestShell24assertCstrNoCaseContainsEPKcS1_S1_S1_j) refers to utest.o(.text._ZN10UtestShell24assertCstrNoCaseContainsEPKcS1_S1_S1_j) for [Anonymous Symbol]
    utest.o(.text._ZN10UtestShell16assertLongsEqualEllPKcS1_jRK14TestTerminator) refers to utest.o(.text._ZN10UtestShell13getTestResultEv) for UtestShell::getTestResult()
    utest.o(.text._ZN10UtestShell16assertLongsEqualEllPKcS1_jRK14TestTerminator) refers to simplestring.o(.text._ZN12SimpleStringC2EPKc) for SimpleString::SimpleString(const char*)
    utest.o(.text._ZN10UtestShell16assertLongsEqualEllPKcS1_jRK14TestTerminator) refers to testfailure.o(.text._ZN17LongsEqualFailureC2EP10UtestShellPKcjllRK12SimpleString) for LongsEqualFailure::LongsEqualFailure(UtestShell*, const char*, unsigned, long, long, const SimpleString&)
    utest.o(.text._ZN10UtestShell16assertLongsEqualEllPKcS1_jRK14TestTerminator) refers to testfailure.o(.text._ZN11TestFailureD2Ev) for TestFailure::~TestFailure__sub_object()
    utest.o(.text._ZN10UtestShell16assertLongsEqualEllPKcS1_jRK14TestTerminator) refers to simplestring.o(.text._ZN12SimpleStringD2Ev) for SimpleString::~SimpleString()
    utest.o(.ARM.exidx.text._ZN10UtestShell16assertLongsEqualEllPKcS1_jRK14TestTerminator) refers to utest.o(.text._ZN10UtestShell16assertLongsEqualEllPKcS1_jRK14TestTerminator) for [Anonymous Symbol]
    utest.o(.text._ZN10UtestShell24assertUnsignedLongsEqualEmmPKcS1_jRK14TestTerminator) refers to utest.o(.text._ZN10UtestShell13getTestResultEv) for UtestShell::getTestResult()
    utest.o(.text._ZN10UtestShell24assertUnsignedLongsEqualEmmPKcS1_jRK14TestTerminator) refers to simplestring.o(.text._ZN12SimpleStringC2EPKc) for SimpleString::SimpleString(const char*)
    utest.o(.text._ZN10UtestShell24assertUnsignedLongsEqualEmmPKcS1_jRK14TestTerminator) refers to testfailure.o(.text._ZN25UnsignedLongsEqualFailureC2EP10UtestShellPKcjmmRK12SimpleString) for UnsignedLongsEqualFailure::UnsignedLongsEqualFailure(UtestShell*, const char*, unsigned, unsigned long, unsigned long, const SimpleString&)
    utest.o(.text._ZN10UtestShell24assertUnsignedLongsEqualEmmPKcS1_jRK14TestTerminator) refers to testfailure.o(.text._ZN11TestFailureD2Ev) for TestFailure::~TestFailure__sub_object()
    utest.o(.text._ZN10UtestShell24assertUnsignedLongsEqualEmmPKcS1_jRK14TestTerminator) refers to simplestring.o(.text._ZN12SimpleStringD2Ev) for SimpleString::~SimpleString()
    utest.o(.ARM.exidx.text._ZN10UtestShell24assertUnsignedLongsEqualEmmPKcS1_jRK14TestTerminator) refers to utest.o(.text._ZN10UtestShell24assertUnsignedLongsEqualEmmPKcS1_jRK14TestTerminator) for [Anonymous Symbol]
    utest.o(.text._ZN10UtestShell20assertLongLongsEqualExxPKcS1_jRK14TestTerminator) refers to utest.o(.text._ZN10UtestShell13getTestResultEv) for UtestShell::getTestResult()
    utest.o(.text._ZN10UtestShell20assertLongLongsEqualExxPKcS1_jRK14TestTerminator) refers to simplestring.o(.text._ZN12SimpleStringC2EPKc) for SimpleString::SimpleString(const char*)
    utest.o(.text._ZN10UtestShell20assertLongLongsEqualExxPKcS1_jRK14TestTerminator) refers to testfailure.o(.text._ZN21LongLongsEqualFailureC2EP10UtestShellPKcjxxRK12SimpleString) for LongLongsEqualFailure::LongLongsEqualFailure(UtestShell*, const char*, unsigned, long long, long long, const SimpleString&)
    utest.o(.text._ZN10UtestShell20assertLongLongsEqualExxPKcS1_jRK14TestTerminator) refers to testfailure.o(.text._ZN11TestFailureD2Ev) for TestFailure::~TestFailure__sub_object()
    utest.o(.text._ZN10UtestShell20assertLongLongsEqualExxPKcS1_jRK14TestTerminator) refers to simplestring.o(.text._ZN12SimpleStringD2Ev) for SimpleString::~SimpleString()
    utest.o(.ARM.exidx.text._ZN10UtestShell20assertLongLongsEqualExxPKcS1_jRK14TestTerminator) refers to utest.o(.text._ZN10UtestShell20assertLongLongsEqualExxPKcS1_jRK14TestTerminator) for [Anonymous Symbol]
    utest.o(.text._ZN10UtestShell28assertUnsignedLongLongsEqualEyyPKcS1_jRK14TestTerminator) refers to utest.o(.text._ZN10UtestShell13getTestResultEv) for UtestShell::getTestResult()
    utest.o(.text._ZN10UtestShell28assertUnsignedLongLongsEqualEyyPKcS1_jRK14TestTerminator) refers to simplestring.o(.text._ZN12SimpleStringC2EPKc) for SimpleString::SimpleString(const char*)
    utest.o(.text._ZN10UtestShell28assertUnsignedLongLongsEqualEyyPKcS1_jRK14TestTerminator) refers to testfailure.o(.text._ZN29UnsignedLongLongsEqualFailureC2EP10UtestShellPKcjyyRK12SimpleString) for UnsignedLongLongsEqualFailure::UnsignedLongLongsEqualFailure(UtestShell*, const char*, unsigned, unsigned long long, unsigned long long, const SimpleString&)
    utest.o(.text._ZN10UtestShell28assertUnsignedLongLongsEqualEyyPKcS1_jRK14TestTerminator) refers to testfailure.o(.text._ZN11TestFailureD2Ev) for TestFailure::~TestFailure__sub_object()
    utest.o(.text._ZN10UtestShell28assertUnsignedLongLongsEqualEyyPKcS1_jRK14TestTerminator) refers to simplestring.o(.text._ZN12SimpleStringD2Ev) for SimpleString::~SimpleString()
    utest.o(.ARM.exidx.text._ZN10UtestShell28assertUnsignedLongLongsEqualEyyPKcS1_jRK14TestTerminator) refers to utest.o(.text._ZN10UtestShell28assertUnsignedLongLongsEqualEyyPKcS1_jRK14TestTerminator) for [Anonymous Symbol]
    utest.o(.text._ZN10UtestShell22assertSignedBytesEqualEaaPKcS1_jRK14TestTerminator) refers to utest.o(.text._ZN10UtestShell13getTestResultEv) for UtestShell::getTestResult()
    utest.o(.text._ZN10UtestShell22assertSignedBytesEqualEaaPKcS1_jRK14TestTerminator) refers to simplestring.o(.text._ZN12SimpleStringC2EPKc) for SimpleString::SimpleString(const char*)
    utest.o(.text._ZN10UtestShell22assertSignedBytesEqualEaaPKcS1_jRK14TestTerminator) refers to testfailure.o(.text._ZN23SignedBytesEqualFailureC2EP10UtestShellPKcjaaRK12SimpleString) for SignedBytesEqualFailure::SignedBytesEqualFailure(UtestShell*, const char*, unsigned, signed char, signed char, const SimpleString&)
    utest.o(.text._ZN10UtestShell22assertSignedBytesEqualEaaPKcS1_jRK14TestTerminator) refers to testfailure.o(.text._ZN11TestFailureD2Ev) for TestFailure::~TestFailure__sub_object()
    utest.o(.text._ZN10UtestShell22assertSignedBytesEqualEaaPKcS1_jRK14TestTerminator) refers to simplestring.o(.text._ZN12SimpleStringD2Ev) for SimpleString::~SimpleString()
    utest.o(.ARM.exidx.text._ZN10UtestShell22assertSignedBytesEqualEaaPKcS1_jRK14TestTerminator) refers to utest.o(.text._ZN10UtestShell22assertSignedBytesEqualEaaPKcS1_jRK14TestTerminator) for [Anonymous Symbol]
    utest.o(.text._ZN10UtestShell19assertPointersEqualEPKvS1_PKcS3_jRK14TestTerminator) refers to utest.o(.text._ZN10UtestShell13getTestResultEv) for UtestShell::getTestResult()
    utest.o(.text._ZN10UtestShell19assertPointersEqualEPKvS1_PKcS3_jRK14TestTerminator) refers to simplestring.o(.text._Z10StringFromPKv) for StringFrom(const void*)
    utest.o(.text._ZN10UtestShell19assertPointersEqualEPKvS1_PKcS3_jRK14TestTerminator) refers to simplestring.o(.text._ZN12SimpleStringC2EPKc) for SimpleString::SimpleString(const char*)
    utest.o(.text._ZN10UtestShell19assertPointersEqualEPKvS1_PKcS3_jRK14TestTerminator) refers to testfailure.o(.text._ZN13EqualsFailureC2EP10UtestShellPKcjRK12SimpleStringS6_S6_) for EqualsFailure::EqualsFailure(UtestShell*, const char*, unsigned, const SimpleString&, const SimpleString&, const SimpleString&)
    utest.o(.text._ZN10UtestShell19assertPointersEqualEPKvS1_PKcS3_jRK14TestTerminator) refers to testfailure.o(.text._ZN11TestFailureD2Ev) for TestFailure::~TestFailure__sub_object()
    utest.o(.text._ZN10UtestShell19assertPointersEqualEPKvS1_PKcS3_jRK14TestTerminator) refers to simplestring.o(.text._ZN12SimpleStringD2Ev) for SimpleString::~SimpleString()
    utest.o(.ARM.exidx.text._ZN10UtestShell19assertPointersEqualEPKvS1_PKcS3_jRK14TestTerminator) refers to utest.o(.text._ZN10UtestShell19assertPointersEqualEPKvS1_PKcS3_jRK14TestTerminator) for [Anonymous Symbol]
    utest.o(.text._ZN10UtestShell27assertFunctionPointersEqualEPFvvES1_PKcS3_jRK14TestTerminator) refers to utest.o(.text._ZN10UtestShell13getTestResultEv) for UtestShell::getTestResult()
    utest.o(.text._ZN10UtestShell27assertFunctionPointersEqualEPFvvES1_PKcS3_jRK14TestTerminator) refers to simplestring.o(.text._Z10StringFromPFvvE) for StringFrom(void(*)())
    utest.o(.text._ZN10UtestShell27assertFunctionPointersEqualEPFvvES1_PKcS3_jRK14TestTerminator) refers to simplestring.o(.text._ZN12SimpleStringC2EPKc) for SimpleString::SimpleString(const char*)
    utest.o(.text._ZN10UtestShell27assertFunctionPointersEqualEPFvvES1_PKcS3_jRK14TestTerminator) refers to testfailure.o(.text._ZN13EqualsFailureC2EP10UtestShellPKcjRK12SimpleStringS6_S6_) for EqualsFailure::EqualsFailure(UtestShell*, const char*, unsigned, const SimpleString&, const SimpleString&, const SimpleString&)
    utest.o(.text._ZN10UtestShell27assertFunctionPointersEqualEPFvvES1_PKcS3_jRK14TestTerminator) refers to testfailure.o(.text._ZN11TestFailureD2Ev) for TestFailure::~TestFailure__sub_object()
    utest.o(.text._ZN10UtestShell27assertFunctionPointersEqualEPFvvES1_PKcS3_jRK14TestTerminator) refers to simplestring.o(.text._ZN12SimpleStringD2Ev) for SimpleString::~SimpleString()
    utest.o(.ARM.exidx.text._ZN10UtestShell27assertFunctionPointersEqualEPFvvES1_PKcS3_jRK14TestTerminator) refers to utest.o(.text._ZN10UtestShell27assertFunctionPointersEqualEPFvvES1_PKcS3_jRK14TestTerminator) for [Anonymous Symbol]
    utest.o(.text._ZN10UtestShell18assertDoublesEqualEdddPKcS1_jRK14TestTerminator) refers to utest.o(.text._ZN10UtestShell13getTestResultEv) for UtestShell::getTestResult()
    utest.o(.text._ZN10UtestShell18assertDoublesEqualEdddPKcS1_jRK14TestTerminator) refers to utest.o(.text._Z13doubles_equalddd) for doubles_equal(double, double, double)
    utest.o(.text._ZN10UtestShell18assertDoublesEqualEdddPKcS1_jRK14TestTerminator) refers to simplestring.o(.text._ZN12SimpleStringC2EPKc) for SimpleString::SimpleString(const char*)
    utest.o(.text._ZN10UtestShell18assertDoublesEqualEdddPKcS1_jRK14TestTerminator) refers to testfailure.o(.text._ZN19DoublesEqualFailureC2EP10UtestShellPKcjdddRK12SimpleString) for DoublesEqualFailure::DoublesEqualFailure(UtestShell*, const char*, unsigned, double, double, double, const SimpleString&)
    utest.o(.text._ZN10UtestShell18assertDoublesEqualEdddPKcS1_jRK14TestTerminator) refers to testfailure.o(.text._ZN11TestFailureD2Ev) for TestFailure::~TestFailure__sub_object()
    utest.o(.text._ZN10UtestShell18assertDoublesEqualEdddPKcS1_jRK14TestTerminator) refers to simplestring.o(.text._ZN12SimpleStringD2Ev) for SimpleString::~SimpleString()
    utest.o(.ARM.exidx.text._ZN10UtestShell18assertDoublesEqualEdddPKcS1_jRK14TestTerminator) refers to utest.o(.text._ZN10UtestShell18assertDoublesEqualEdddPKcS1_jRK14TestTerminator) for [Anonymous Symbol]
    utest.o(.text._ZN10UtestShell17assertBinaryEqualEPKvS1_jPKcS3_jRK14TestTerminator) refers to utest.o(.text._ZN10UtestShell13getTestResultEv) for UtestShell::getTestResult()
    utest.o(.text._ZN10UtestShell17assertBinaryEqualEPKvS1_jPKcS3_jRK14TestTerminator) refers to simplestring.o(.text._ZN12SimpleStringC2EPKc) for SimpleString::SimpleString(const char*)
    utest.o(.text._ZN10UtestShell17assertBinaryEqualEPKvS1_jPKcS3_jRK14TestTerminator) refers to testfailure.o(.text._ZN18BinaryEqualFailureC2EP10UtestShellPKcjPKhS5_jRK12SimpleString) for BinaryEqualFailure::BinaryEqualFailure(UtestShell*, const char*, unsigned, const unsigned char*, const unsigned char*, unsigned, const SimpleString&)
    utest.o(.text._ZN10UtestShell17assertBinaryEqualEPKvS1_jPKcS3_jRK14TestTerminator) refers to testfailure.o(.text._ZN11TestFailureD2Ev) for TestFailure::~TestFailure__sub_object()
    utest.o(.text._ZN10UtestShell17assertBinaryEqualEPKvS1_jPKcS3_jRK14TestTerminator) refers to simplestring.o(.text._ZN12SimpleStringD2Ev) for SimpleString::~SimpleString()
    utest.o(.text._ZN10UtestShell17assertBinaryEqualEPKvS1_jPKcS3_jRK14TestTerminator) refers to simplestring.o(.text._ZN12SimpleString6MemCmpEPKvS1_j) for SimpleString::MemCmp(const void*, const void*, unsigned)
    utest.o(.ARM.exidx.text._ZN10UtestShell17assertBinaryEqualEPKvS1_jPKcS3_jRK14TestTerminator) refers to utest.o(.text._ZN10UtestShell17assertBinaryEqualEPKvS1_jPKcS3_jRK14TestTerminator) for [Anonymous Symbol]
    utest.o(.text._ZN10UtestShell15assertBitsEqualEmmmjPKcS1_jRK14TestTerminator) refers to utest.o(.text._ZN10UtestShell13getTestResultEv) for UtestShell::getTestResult()
    utest.o(.text._ZN10UtestShell15assertBitsEqualEmmmjPKcS1_jRK14TestTerminator) refers to simplestring.o(.text._ZN12SimpleStringC2EPKc) for SimpleString::SimpleString(const char*)
    utest.o(.text._ZN10UtestShell15assertBitsEqualEmmmjPKcS1_jRK14TestTerminator) refers to testfailure.o(.text._ZN16BitsEqualFailureC2EP10UtestShellPKcjmmmjRK12SimpleString) for BitsEqualFailure::BitsEqualFailure(UtestShell*, const char*, unsigned, unsigned long, unsigned long, unsigned long, unsigned, const SimpleString&)
    utest.o(.text._ZN10UtestShell15assertBitsEqualEmmmjPKcS1_jRK14TestTerminator) refers to testfailure.o(.text._ZN11TestFailureD2Ev) for TestFailure::~TestFailure__sub_object()
    utest.o(.text._ZN10UtestShell15assertBitsEqualEmmmjPKcS1_jRK14TestTerminator) refers to simplestring.o(.text._ZN12SimpleStringD2Ev) for SimpleString::~SimpleString()
    utest.o(.ARM.exidx.text._ZN10UtestShell15assertBitsEqualEmmmjPKcS1_jRK14TestTerminator) refers to utest.o(.text._ZN10UtestShell15assertBitsEqualEmmmjPKcS1_jRK14TestTerminator) for [Anonymous Symbol]
    utest.o(.text._ZN10UtestShell12assertEqualsEbPKcS1_S1_S1_jRK14TestTerminator) refers to utest.o(.text._ZN10UtestShell13getTestResultEv) for UtestShell::getTestResult()
    utest.o(.text._ZN10UtestShell12assertEqualsEbPKcS1_S1_S1_jRK14TestTerminator) refers to testfailure.o(.text._ZN17CheckEqualFailureC2EP10UtestShellPKcjRK12SimpleStringS6_S6_) for CheckEqualFailure::CheckEqualFailure(UtestShell*, const char*, unsigned, const SimpleString&, const SimpleString&, const SimpleString&)
    utest.o(.text._ZN10UtestShell12assertEqualsEbPKcS1_S1_S1_jRK14TestTerminator) refers to testfailure.o(.text._ZN11TestFailureD2Ev) for TestFailure::~TestFailure__sub_object()
    utest.o(.text._ZN10UtestShell12assertEqualsEbPKcS1_S1_S1_jRK14TestTerminator) refers to simplestring.o(.text._ZN12SimpleStringC2EPKc) for SimpleString::SimpleString(const char*)
    utest.o(.text._ZN10UtestShell12assertEqualsEbPKcS1_S1_S1_jRK14TestTerminator) refers to simplestring.o(.text._ZN12SimpleStringD2Ev) for SimpleString::~SimpleString()
    utest.o(.ARM.exidx.text._ZN10UtestShell12assertEqualsEbPKcS1_S1_S1_jRK14TestTerminator) refers to utest.o(.text._ZN10UtestShell12assertEqualsEbPKcS1_S1_S1_jRK14TestTerminator) for [Anonymous Symbol]
    utest.o(.text._ZN10UtestShell13assertCompareEbPKcS1_S1_S1_jRK14TestTerminator) refers to utest.o(.text._ZN10UtestShell13getTestResultEv) for UtestShell::getTestResult()
    utest.o(.text._ZN10UtestShell13assertCompareEbPKcS1_S1_S1_jRK14TestTerminator) refers to testfailure.o(.text._ZN17ComparisonFailureC2EP10UtestShellPKcjRK12SimpleStringS6_S6_) for ComparisonFailure::ComparisonFailure(UtestShell*, const char*, unsigned, const SimpleString&, const SimpleString&, const SimpleString&)
    utest.o(.text._ZN10UtestShell13assertCompareEbPKcS1_S1_S1_jRK14TestTerminator) refers to testfailure.o(.text._ZN11TestFailureD2Ev) for TestFailure::~TestFailure__sub_object()
    utest.o(.text._ZN10UtestShell13assertCompareEbPKcS1_S1_S1_jRK14TestTerminator) refers to simplestring.o(.text._ZN12SimpleStringC2EPKc) for SimpleString::SimpleString(const char*)
    utest.o(.text._ZN10UtestShell13assertCompareEbPKcS1_S1_S1_jRK14TestTerminator) refers to simplestring.o(.text._ZN12SimpleStringD2Ev) for SimpleString::~SimpleString()
    utest.o(.ARM.exidx.text._ZN10UtestShell13assertCompareEbPKcS1_S1_S1_jRK14TestTerminator) refers to utest.o(.text._ZN10UtestShell13assertCompareEbPKcS1_S1_S1_jRK14TestTerminator) for [Anonymous Symbol]
    utest.o(.text._ZN10UtestShell5printEPKcS1_j) refers to simplestring.o(.text._ZN12SimpleStringC2EPKc) for SimpleString::SimpleString(const char*)
    utest.o(.text._ZN10UtestShell5printEPKcS1_j) refers to simplestring.o(.text._Z10StringFromj) for StringFrom(unsigned)
    utest.o(.text._ZN10UtestShell5printEPKcS1_j) refers to simplestring.o(.text._ZN12SimpleStringpLERKS_) for SimpleString::operator +=(const SimpleString&)
    utest.o(.text._ZN10UtestShell5printEPKcS1_j) refers to simplestring.o(.text._ZN12SimpleStringD2Ev) for SimpleString::~SimpleString()
    utest.o(.text._ZN10UtestShell5printEPKcS1_j) refers to utest.o(.text._ZN10UtestShell13getTestResultEv) for UtestShell::getTestResult()
    utest.o(.text._ZN10UtestShell5printEPKcS1_j) refers to simplestring.o(.text._ZNK12SimpleString12asCharStringEv) for SimpleString::asCharString() const
    utest.o(.text._ZN10UtestShell5printEPKcS1_j) refers to simplestring.o(.text._ZN12SimpleStringpLEPKc) for SimpleString::operator +=(const char*)
    utest.o(.ARM.exidx.text._ZN10UtestShell5printEPKcS1_j) refers to utest.o(.text._ZN10UtestShell5printEPKcS1_j) for [Anonymous Symbol]
    utest.o(.text._ZN10UtestShell5printERK12SimpleStringPKcj) refers to simplestring.o(.text._ZNK12SimpleString12asCharStringEv) for SimpleString::asCharString() const
    utest.o(.ARM.exidx.text._ZN10UtestShell5printERK12SimpleStringPKcj) refers to utest.o(.text._ZN10UtestShell5printERK12SimpleStringPKcj) for [Anonymous Symbol]
    utest.o(.text._ZN10UtestShell16printVeryVerboseEPKc) refers to utest.o(.text._ZN10UtestShell13getTestResultEv) for UtestShell::getTestResult()
    utest.o(.ARM.exidx.text._ZN10UtestShell16printVeryVerboseEPKc) refers to utest.o(.text._ZN10UtestShell16printVeryVerboseEPKc) for [Anonymous Symbol]
    utest.o(.text._ZN10UtestShell14setCrashOnFailEv) refers to utest.o(.data..L_MergedGlobals) for [Anonymous Symbol]
    utest.o(.ARM.exidx.text._ZN10UtestShell14setCrashOnFailEv) refers to utest.o(.text._ZN10UtestShell14setCrashOnFailEv) for [Anonymous Symbol]
    utest.o(.text._ZN10UtestShell28restoreDefaultTestTerminatorEv) refers to utest.o(.data..L_MergedGlobals) for [Anonymous Symbol]
    utest.o(.ARM.exidx.text._ZN10UtestShell28restoreDefaultTestTerminatorEv) refers to utest.o(.text._ZN10UtestShell28restoreDefaultTestTerminatorEv) for [Anonymous Symbol]
    utest.o(.text._ZN21ExecFunctionTestShellD0Ev) refers to memoryleakwarningplugin.o(.text._ZdlPv) for operator delete (void*)
    utest.o(.ARM.exidx.text._ZN21ExecFunctionTestShellD0Ev) refers to utest.o(.text._ZN21ExecFunctionTestShellD0Ev) for [Anonymous Symbol]
    utest.o(.text._ZN5UtestC2Ev) refers to utest.o(.rodata._ZTV5Utest) for vtable for Utest
    utest.o(.ARM.exidx.text._ZN5UtestC2Ev) refers to utest.o(.text._ZN5UtestC2Ev) for [Anonymous Symbol]
    utest.o(.text._ZN5UtestD0Ev) refers to memoryleakwarningplugin.o(.text._ZdlPv) for operator delete (void*)
    utest.o(.ARM.exidx.text._ZN5UtestD0Ev) refers to utest.o(.text._ZN5UtestD0Ev) for [Anonymous Symbol]
    utest.o(.text._ZN5Utest3runEv) refers to utestplatform.o(.data.PlatformSpecificSetJmp) for PlatformSpecificSetJmp
    utest.o(.text._ZN5Utest3runEv) refers to utest.o(.text._ZL17helperDoTestSetupPv) for _ZL17helperDoTestSetupPv
    utest.o(.text._ZN5Utest3runEv) refers to utest.o(.text._ZL16helperDoTestBodyPv) for _ZL16helperDoTestBodyPv
    utest.o(.text._ZN5Utest3runEv) refers to utest.o(.text._ZL20helperDoTestTeardownPv) for _ZL20helperDoTestTeardownPv
    utest.o(.ARM.exidx.text._ZN5Utest3runEv) refers to utest.o(.text._ZN5Utest3runEv) for [Anonymous Symbol]
    utest.o(.ARM.exidx.text._ZL17helperDoTestSetupPv) refers to utest.o(.text._ZL17helperDoTestSetupPv) for [Anonymous Symbol]
    utest.o(.ARM.exidx.text._ZL16helperDoTestBodyPv) refers to utest.o(.text._ZL16helperDoTestBodyPv) for [Anonymous Symbol]
    utest.o(.ARM.exidx.text._ZL20helperDoTestTeardownPv) refers to utest.o(.text._ZL20helperDoTestTeardownPv) for [Anonymous Symbol]
    utest.o(.ARM.exidx.text._ZN5Utest5setupEv) refers to utest.o(.text._ZN5Utest5setupEv) for [Anonymous Symbol]
    utest.o(.ARM.exidx.text._ZN5Utest8testBodyEv) refers to utest.o(.text._ZN5Utest8testBodyEv) for [Anonymous Symbol]
    utest.o(.ARM.exidx.text._ZN5Utest8teardownEv) refers to utest.o(.text._ZN5Utest8teardownEv) for [Anonymous Symbol]
    utest.o(.ARM.exidx.text._ZN14TestTerminatorD2Ev) refers to utest.o(.text._ZN14TestTerminatorD2Ev) for [Anonymous Symbol]
    utest.o(.ARM.exidx.text._ZN14TestTerminatorD0Ev) refers to utest.o(.text._ZN14TestTerminatorD0Ev) for [Anonymous Symbol]
    utest.o(.text._ZNK20NormalTestTerminator15exitCurrentTestEv) refers to utestplatform.o(.data.PlatformSpecificLongJmp) for PlatformSpecificLongJmp
    utest.o(.ARM.exidx.text._ZNK20NormalTestTerminator15exitCurrentTestEv) refers to utest.o(.text._ZNK20NormalTestTerminator15exitCurrentTestEv) for [Anonymous Symbol]
    utest.o(.text._ZNK31TestTerminatorWithoutExceptions15exitCurrentTestEv) refers to utestplatform.o(.data.PlatformSpecificLongJmp) for PlatformSpecificLongJmp
    utest.o(.ARM.exidx.text._ZNK31TestTerminatorWithoutExceptions15exitCurrentTestEv) refers to utest.o(.text._ZNK31TestTerminatorWithoutExceptions15exitCurrentTestEv) for [Anonymous Symbol]
    utest.o(.text._ZN20NormalTestTerminatorD0Ev) refers to memoryleakwarningplugin.o(.text._ZdlPv) for operator delete (void*)
    utest.o(.ARM.exidx.text._ZN20NormalTestTerminatorD0Ev) refers to utest.o(.text._ZN20NormalTestTerminatorD0Ev) for [Anonymous Symbol]
    utest.o(.text._ZN31TestTerminatorWithoutExceptionsD0Ev) refers to memoryleakwarningplugin.o(.text._ZdlPv) for operator delete (void*)
    utest.o(.ARM.exidx.text._ZN31TestTerminatorWithoutExceptionsD0Ev) refers to utest.o(.text._ZN31TestTerminatorWithoutExceptionsD0Ev) for [Anonymous Symbol]
    utest.o(.text._ZNK22CrashingTestTerminator15exitCurrentTestEv) refers to utest.o(.data._ZL21pleaseCrashMeRightNow) for [Anonymous Symbol]
    utest.o(.text._ZNK22CrashingTestTerminator15exitCurrentTestEv) refers to utestplatform.o(.data.PlatformSpecificLongJmp) for PlatformSpecificLongJmp
    utest.o(.ARM.exidx.text._ZNK22CrashingTestTerminator15exitCurrentTestEv) refers to utest.o(.text._ZNK22CrashingTestTerminator15exitCurrentTestEv) for [Anonymous Symbol]
    utest.o(.text._ZN22CrashingTestTerminatorD0Ev) refers to memoryleakwarningplugin.o(.text._ZdlPv) for operator delete (void*)
    utest.o(.ARM.exidx.text._ZN22CrashingTestTerminatorD0Ev) refers to utest.o(.text._ZN22CrashingTestTerminatorD0Ev) for [Anonymous Symbol]
    utest.o(.text._ZN12ExecFunctionC2Ev) refers to utest.o(.rodata._ZTV12ExecFunction) for vtable for ExecFunction
    utest.o(.ARM.exidx.text._ZN12ExecFunctionC2Ev) refers to utest.o(.text._ZN12ExecFunctionC2Ev) for [Anonymous Symbol]
    utest.o(.ARM.exidx.text._ZN12ExecFunctionD2Ev) refers to utest.o(.text._ZN12ExecFunctionD2Ev) for [Anonymous Symbol]
    utest.o(.ARM.exidx.text._ZN12ExecFunctionD0Ev) refers to utest.o(.text._ZN12ExecFunctionD0Ev) for [Anonymous Symbol]
    utest.o(.text._ZN29ExecFunctionWithoutParametersC2EPFvvE) refers to utest.o(.rodata._ZTV29ExecFunctionWithoutParameters) for vtable for ExecFunctionWithoutParameters
    utest.o(.ARM.exidx.text._ZN29ExecFunctionWithoutParametersC2EPFvvE) refers to utest.o(.text._ZN29ExecFunctionWithoutParametersC2EPFvvE) for [Anonymous Symbol]
    utest.o(.text._ZN29ExecFunctionWithoutParametersD0Ev) refers to memoryleakwarningplugin.o(.text._ZdlPv) for operator delete (void*)
    utest.o(.ARM.exidx.text._ZN29ExecFunctionWithoutParametersD0Ev) refers to utest.o(.text._ZN29ExecFunctionWithoutParametersD0Ev) for [Anonymous Symbol]
    utest.o(.ARM.exidx.text._ZN29ExecFunctionWithoutParameters4execEv) refers to utest.o(.text._ZN29ExecFunctionWithoutParameters4execEv) for [Anonymous Symbol]
    utest.o(.text._ZN16ExecFunctionTestC2EP21ExecFunctionTestShell) refers to utest.o(.rodata._ZTV16ExecFunctionTest) for vtable for ExecFunctionTest
    utest.o(.ARM.exidx.text._ZN16ExecFunctionTestC2EP21ExecFunctionTestShell) refers to utest.o(.text._ZN16ExecFunctionTestC2EP21ExecFunctionTestShell) for [Anonymous Symbol]
    utest.o(.ARM.exidx.text._ZN16ExecFunctionTest8testBodyEv) refers to utest.o(.text._ZN16ExecFunctionTest8testBodyEv) for [Anonymous Symbol]
    utest.o(.ARM.exidx.text._ZN16ExecFunctionTest5setupEv) refers to utest.o(.text._ZN16ExecFunctionTest5setupEv) for [Anonymous Symbol]
    utest.o(.ARM.exidx.text._ZN16ExecFunctionTest8teardownEv) refers to utest.o(.text._ZN16ExecFunctionTest8teardownEv) for [Anonymous Symbol]
    utest.o(.text._ZN17IgnoredUtestShellC2Ev) refers to utest.o(.rodata.str1.1) for .L.str.3
    utest.o(.text._ZN17IgnoredUtestShellC2Ev) refers to utest.o(.rodata._ZTV17IgnoredUtestShell) for vtable for IgnoredUtestShell
    utest.o(.ARM.exidx.text._ZN17IgnoredUtestShellC2Ev) refers to utest.o(.text._ZN17IgnoredUtestShellC2Ev) for [Anonymous Symbol]
    utest.o(.text._ZN17IgnoredUtestShellC2EPKcS1_S1_j) refers to utest.o(.rodata._ZTV17IgnoredUtestShell) for vtable for IgnoredUtestShell
    utest.o(.ARM.exidx.text._ZN17IgnoredUtestShellC2EPKcS1_S1_j) refers to utest.o(.text._ZN17IgnoredUtestShellC2EPKcS1_S1_j) for [Anonymous Symbol]
    utest.o(.text._ZN17IgnoredUtestShellD0Ev) refers to memoryleakwarningplugin.o(.text._ZdlPv) for operator delete (void*)
    utest.o(.ARM.exidx.text._ZN17IgnoredUtestShellD0Ev) refers to utest.o(.text._ZN17IgnoredUtestShellD0Ev) for [Anonymous Symbol]
    utest.o(.ARM.exidx.text._ZNK17IgnoredUtestShell7willRunEv) refers to utest.o(.text._ZNK17IgnoredUtestShell7willRunEv) for [Anonymous Symbol]
    utest.o(.text._ZNK17IgnoredUtestShell12getMacroNameEv) refers to simplestring.o(.text._ZN12SimpleStringC2EPKc) for SimpleString::SimpleString(const char*)
    utest.o(.text._ZNK17IgnoredUtestShell12getMacroNameEv) refers to utest.o(.rodata.str1.1) for .L.str.15
    utest.o(.ARM.exidx.text._ZNK17IgnoredUtestShell12getMacroNameEv) refers to utest.o(.text._ZNK17IgnoredUtestShell12getMacroNameEv) for [Anonymous Symbol]
    utest.o(.text._ZN17IgnoredUtestShell10runOneTestEP10TestPluginR10TestResult) refers to utest.o(.text._ZN10UtestShell10runOneTestEP10TestPluginR10TestResult) for UtestShell::runOneTest(TestPlugin*, TestResult&)
    utest.o(.ARM.exidx.text._ZN17IgnoredUtestShell10runOneTestEP10TestPluginR10TestResult) refers to utest.o(.text._ZN17IgnoredUtestShell10runOneTestEP10TestPluginR10TestResult) for [Anonymous Symbol]
    utest.o(.ARM.exidx.text._ZN17IgnoredUtestShell13setRunIgnoredEv) refers to utest.o(.text._ZN17IgnoredUtestShell13setRunIgnoredEv) for [Anonymous Symbol]
    utest.o(.text._ZN22UtestShellPointerArrayC2EP10UtestShell) refers to memoryleakwarningplugin.o(.text._ZnajPKci) for operator new[] (unsigned, const char*, int)
    utest.o(.text._ZN22UtestShellPointerArrayC2EP10UtestShell) refers to utest.o(.rodata.str1.1) for .L.str.4
    utest.o(.ARM.exidx.text._ZN22UtestShellPointerArrayC2EP10UtestShell) refers to utest.o(.text._ZN22UtestShellPointerArrayC2EP10UtestShell) for [Anonymous Symbol]
    utest.o(.text._ZN22UtestShellPointerArrayD2Ev) refers to memoryleakwarningplugin.o(.text._ZdaPv) for operator delete[] (void*)
    utest.o(.ARM.exidx.text._ZN22UtestShellPointerArrayD2Ev) refers to utest.o(.text._ZN22UtestShellPointerArrayD2Ev) for [Anonymous Symbol]
    utest.o(.ARM.exidx.text._ZN22UtestShellPointerArray4swapEjj) refers to utest.o(.text._ZN22UtestShellPointerArray4swapEjj) for [Anonymous Symbol]
    utest.o(.text._ZN22UtestShellPointerArray7shuffleEj) refers to utest.o(.text._ZN22UtestShellPointerArray18relinkTestsInOrderEv) for UtestShellPointerArray::relinkTestsInOrder()
    utest.o(.text._ZN22UtestShellPointerArray7shuffleEj) refers to utestplatform.o(.data.PlatformSpecificSrand) for PlatformSpecificSrand
    utest.o(.text._ZN22UtestShellPointerArray7shuffleEj) refers to utestplatform.o(.data.PlatformSpecificRand) for PlatformSpecificRand
    utest.o(.ARM.exidx.text._ZN22UtestShellPointerArray7shuffleEj) refers to utest.o(.text._ZN22UtestShellPointerArray7shuffleEj) for [Anonymous Symbol]
    utest.o(.ARM.exidx.text._ZN22UtestShellPointerArray18relinkTestsInOrderEv) refers to utest.o(.text._ZN22UtestShellPointerArray18relinkTestsInOrderEv) for [Anonymous Symbol]
    utest.o(.text._ZN22UtestShellPointerArray7reverseEv) refers to utest.o(.text._ZN22UtestShellPointerArray18relinkTestsInOrderEv) for UtestShellPointerArray::relinkTestsInOrder()
    utest.o(.ARM.exidx.text._ZN22UtestShellPointerArray7reverseEv) refers to utest.o(.text._ZN22UtestShellPointerArray7reverseEv) for [Anonymous Symbol]
    utest.o(.ARM.exidx.text._ZNK22UtestShellPointerArray12getFirstTestEv) refers to utest.o(.text._ZNK22UtestShellPointerArray12getFirstTestEv) for [Anonymous Symbol]
    utest.o(.ARM.exidx.text._ZNK22UtestShellPointerArray3getEj) refers to utest.o(.text._ZNK22UtestShellPointerArray3getEj) for [Anonymous Symbol]
    utest.o(.text._ZN13TestInstallerC2ER10UtestShellPKcS3_S3_j) refers to testregistry.o(.text._ZN12TestRegistry18getCurrentRegistryEv) for TestRegistry::getCurrentRegistry()
    utest.o(.text._ZN13TestInstallerC2ER10UtestShellPKcS3_S3_j) refers to utest.o(.rodata._ZTV13TestInstaller) for vtable for TestInstaller
    utest.o(.ARM.exidx.text._ZN13TestInstallerC2ER10UtestShellPKcS3_S3_j) refers to utest.o(.text._ZN13TestInstallerC2ER10UtestShellPKcS3_S3_j) for [Anonymous Symbol]
    utest.o(.ARM.exidx.text._ZN13TestInstallerD2Ev) refers to utest.o(.text._ZN13TestInstallerD2Ev) for [Anonymous Symbol]
    utest.o(.text._ZN13TestInstallerD0Ev) refers to memoryleakwarningplugin.o(.text._ZdlPv) for operator delete (void*)
    utest.o(.ARM.exidx.text._ZN13TestInstallerD0Ev) refers to utest.o(.text._ZN13TestInstallerD0Ev) for [Anonymous Symbol]
    utest.o(.text._ZN13TestInstaller4unDoEv) refers to testregistry.o(.text._ZN12TestRegistry18getCurrentRegistryEv) for TestRegistry::getCurrentRegistry()
    utest.o(.ARM.exidx.text._ZN13TestInstaller4unDoEv) refers to utest.o(.text._ZN13TestInstaller4unDoEv) for [Anonymous Symbol]
    utest.o(.ARM.exidx.text._ZN5UtestD2Ev) refers to utest.o(.text._ZN5UtestD2Ev) for [Anonymous Symbol]
    utest.o(.rodata._ZTV10UtestShell) refers to utest.o(.rodata._ZTI10UtestShell) for typeinfo for UtestShell
    utest.o(.rodata._ZTV10UtestShell) refers to utest.o(.text._ZN10UtestShellD2Ev) for UtestShell::~UtestShell__sub_object()
    utest.o(.rodata._ZTV10UtestShell) refers to utest.o(.text._ZN10UtestShellD0Ev) for UtestShell::~UtestShell__deallocating()
    utest.o(.rodata._ZTV10UtestShell) refers to utest.o(.text._ZN10UtestShell7addTestEPS_) for UtestShell::addTest(UtestShell*)
    utest.o(.rodata._ZTV10UtestShell) refers to utest.o(.text._ZNK10UtestShell7getNextEv) for UtestShell::getNext() const
    utest.o(.rodata._ZTV10UtestShell) refers to utest.o(.text._ZN10UtestShell10countTestsEv) for UtestShell::countTests()
    utest.o(.rodata._ZTV10UtestShell) refers to utest.o(.text._ZNK10UtestShell16getFormattedNameEv) for UtestShell::getFormattedName() const
    utest.o(.rodata._ZTV10UtestShell) refers to utest.o(.text._ZNK10UtestShell7willRunEv) for UtestShell::willRun() const
    utest.o(.rodata._ZTV10UtestShell) refers to utest.o(.text._ZNK10UtestShell9hasFailedEv) for UtestShell::hasFailed() const
    utest.o(.rodata._ZTV10UtestShell) refers to utest.o(.text._ZN10UtestShell10assertTrueEbPKcS1_S1_S1_jRK14TestTerminator) for UtestShell::assertTrue(bool, const char*, const char*, const char*, const char*, unsigned, const TestTerminator&)
    utest.o(.rodata._ZTV10UtestShell) refers to utest.o(.text._ZN10UtestShell15assertCstrEqualEPKcS1_S1_S1_jRK14TestTerminator) for UtestShell::assertCstrEqual(const char*, const char*, const char*, const char*, unsigned, const TestTerminator&)
    utest.o(.rodata._ZTV10UtestShell) refers to utest.o(.text._ZN10UtestShell16assertCstrNEqualEPKcS1_jS1_S1_jRK14TestTerminator) for UtestShell::assertCstrNEqual(const char*, const char*, unsigned, const char*, const char*, unsigned, const TestTerminator&)
    utest.o(.rodata._ZTV10UtestShell) refers to utest.o(.text._ZN10UtestShell21assertCstrNoCaseEqualEPKcS1_S1_S1_j) for UtestShell::assertCstrNoCaseEqual(const char*, const char*, const char*, const char*, unsigned)
    utest.o(.rodata._ZTV10UtestShell) refers to utest.o(.text._ZN10UtestShell18assertCstrContainsEPKcS1_S1_S1_j) for UtestShell::assertCstrContains(const char*, const char*, const char*, const char*, unsigned)
    utest.o(.rodata._ZTV10UtestShell) refers to utest.o(.text._ZN10UtestShell24assertCstrNoCaseContainsEPKcS1_S1_S1_j) for UtestShell::assertCstrNoCaseContains(const char*, const char*, const char*, const char*, unsigned)
    utest.o(.rodata._ZTV10UtestShell) refers to utest.o(.text._ZN10UtestShell16assertLongsEqualEllPKcS1_jRK14TestTerminator) for UtestShell::assertLongsEqual(long, long, const char*, const char*, unsigned, const TestTerminator&)
    utest.o(.rodata._ZTV10UtestShell) refers to utest.o(.text._ZN10UtestShell24assertUnsignedLongsEqualEmmPKcS1_jRK14TestTerminator) for UtestShell::assertUnsignedLongsEqual(unsigned long, unsigned long, const char*, const char*, unsigned, const TestTerminator&)
    utest.o(.rodata._ZTV10UtestShell) refers to utest.o(.text._ZN10UtestShell20assertLongLongsEqualExxPKcS1_jRK14TestTerminator) for UtestShell::assertLongLongsEqual(long long, long long, const char*, const char*, unsigned, const TestTerminator&)
    utest.o(.rodata._ZTV10UtestShell) refers to utest.o(.text._ZN10UtestShell28assertUnsignedLongLongsEqualEyyPKcS1_jRK14TestTerminator) for UtestShell::assertUnsignedLongLongsEqual(unsigned long long, unsigned long long, const char*, const char*, unsigned, const TestTerminator&)
    utest.o(.rodata._ZTV10UtestShell) refers to utest.o(.text._ZN10UtestShell22assertSignedBytesEqualEaaPKcS1_jRK14TestTerminator) for UtestShell::assertSignedBytesEqual(signed char, signed char, const char*, const char*, unsigned, const TestTerminator&)
    utest.o(.rodata._ZTV10UtestShell) refers to utest.o(.text._ZN10UtestShell19assertPointersEqualEPKvS1_PKcS3_jRK14TestTerminator) for UtestShell::assertPointersEqual(const void*, const void*, const char*, const char*, unsigned, const TestTerminator&)
    utest.o(.rodata._ZTV10UtestShell) refers to utest.o(.text._ZN10UtestShell27assertFunctionPointersEqualEPFvvES1_PKcS3_jRK14TestTerminator) for UtestShell::assertFunctionPointersEqual(void(*)(), void(*)(), const char*, const char*, unsigned, const TestTerminator&)
    utest.o(.rodata._ZTV10UtestShell) refers to utest.o(.text._ZN10UtestShell18assertDoublesEqualEdddPKcS1_jRK14TestTerminator) for UtestShell::assertDoublesEqual(double, double, double, const char*, const char*, unsigned, const TestTerminator&)
    utest.o(.rodata._ZTV10UtestShell) refers to utest.o(.text._ZN10UtestShell12assertEqualsEbPKcS1_S1_S1_jRK14TestTerminator) for UtestShell::assertEquals(bool, const char*, const char*, const char*, const char*, unsigned, const TestTerminator&)
    utest.o(.rodata._ZTV10UtestShell) refers to utest.o(.text._ZN10UtestShell17assertBinaryEqualEPKvS1_jPKcS3_jRK14TestTerminator) for UtestShell::assertBinaryEqual(const void*, const void*, unsigned, const char*, const char*, unsigned, const TestTerminator&)
    utest.o(.rodata._ZTV10UtestShell) refers to utest.o(.text._ZN10UtestShell15assertBitsEqualEmmmjPKcS1_jRK14TestTerminator) for UtestShell::assertBitsEqual(unsigned long, unsigned long, unsigned long, unsigned, const char*, const char*, unsigned, const TestTerminator&)
    utest.o(.rodata._ZTV10UtestShell) refers to utest.o(.text._ZN10UtestShell13assertCompareEbPKcS1_S1_S1_jRK14TestTerminator) for UtestShell::assertCompare(bool, const char*, const char*, const char*, const char*, unsigned, const TestTerminator&)
    utest.o(.rodata._ZTV10UtestShell) refers to utest.o(.text._ZN10UtestShell4failEPKcS1_jRK14TestTerminator) for UtestShell::fail(const char*, const char*, unsigned, const TestTerminator&)
    utest.o(.rodata._ZTV10UtestShell) refers to utest.o(.text._ZN10UtestShell8exitTestERK14TestTerminator) for UtestShell::exitTest(const TestTerminator&)
    utest.o(.rodata._ZTV10UtestShell) refers to utest.o(.text._ZN10UtestShell5printEPKcS1_j) for UtestShell::print(const char*, const char*, unsigned)
    utest.o(.rodata._ZTV10UtestShell) refers to utest.o(.text._ZN10UtestShell5printERK12SimpleStringPKcj) for UtestShell::print(const SimpleString&, const char*, unsigned)
    utest.o(.rodata._ZTV10UtestShell) refers to utest.o(.text._ZN10UtestShell16printVeryVerboseEPKc) for UtestShell::printVeryVerbose(const char*)
    utest.o(.rodata._ZTV10UtestShell) refers to utest.o(.text._ZNK10UtestShell22isRunInSeperateProcessEv) for UtestShell::isRunInSeperateProcess() const
    utest.o(.rodata._ZTV10UtestShell) refers to utest.o(.text._ZN10UtestShell23setRunInSeperateProcessEv) for UtestShell::setRunInSeperateProcess()
    utest.o(.rodata._ZTV10UtestShell) refers to utest.o(.text._ZN10UtestShell13setRunIgnoredEv) for UtestShell::setRunIgnored()
    utest.o(.rodata._ZTV10UtestShell) refers to utest.o(.text._ZN10UtestShell10createTestEv) for UtestShell::createTest()
    utest.o(.rodata._ZTV10UtestShell) refers to utest.o(.text._ZN10UtestShell11destroyTestEP5Utest) for UtestShell::destroyTest(Utest*)
    utest.o(.rodata._ZTV10UtestShell) refers to utest.o(.text._ZN10UtestShell10runOneTestEP10TestPluginR10TestResult) for UtestShell::runOneTest(TestPlugin*, TestResult&)
    utest.o(.rodata._ZTV10UtestShell) refers to utest.o(.text._ZN10UtestShell26runOneTestInCurrentProcessEP10TestPluginR10TestResult) for UtestShell::runOneTestInCurrentProcess(TestPlugin*, TestResult&)
    utest.o(.rodata._ZTV10UtestShell) refers to utest.o(.text._ZN10UtestShell8failWithERK11TestFailure) for UtestShell::failWith(const TestFailure&)
    utest.o(.rodata._ZTV10UtestShell) refers to utest.o(.text._ZN10UtestShell8failWithERK11TestFailureRK14TestTerminator) for UtestShell::failWith(const TestFailure&, const TestTerminator&)
    utest.o(.rodata._ZTV10UtestShell) refers to utest.o(.text._ZNK10UtestShell12getMacroNameEv) for UtestShell::getMacroName() const
    utest.o(.data._ZL21pleaseCrashMeRightNow) refers to utest.o(.text._ZL18defaultCrashMethodv) for _ZL18defaultCrashMethodv
    utest.o(.rodata._ZTV5Utest) refers to utest.o(.rodata._ZTI5Utest) for typeinfo for Utest
    utest.o(.rodata._ZTV5Utest) refers to utest.o(.text._ZN5UtestD2Ev) for Utest::~Utest__sub_object()
    utest.o(.rodata._ZTV5Utest) refers to utest.o(.text._ZN5UtestD0Ev) for Utest::~Utest__deallocating()
    utest.o(.rodata._ZTV5Utest) refers to utest.o(.text._ZN5Utest3runEv) for Utest::run()
    utest.o(.rodata._ZTV5Utest) refers to utest.o(.text._ZN5Utest5setupEv) for Utest::setup()
    utest.o(.rodata._ZTV5Utest) refers to utest.o(.text._ZN5Utest8teardownEv) for Utest::teardown()
    utest.o(.rodata._ZTV5Utest) refers to utest.o(.text._ZN5Utest8testBodyEv) for Utest::testBody()
    utest.o(.rodata._ZTV12ExecFunction) refers to utest.o(.rodata._ZTI12ExecFunction) for typeinfo for ExecFunction
    utest.o(.rodata._ZTV12ExecFunction) refers to utest.o(.text._ZN12ExecFunctionD2Ev) for ExecFunction::~ExecFunction__sub_object()
    utest.o(.rodata._ZTV12ExecFunction) refers to utest.o(.text._ZN12ExecFunctionD0Ev) for ExecFunction::~ExecFunction__deallocating()
    utest.o(.rodata._ZTV12ExecFunction) refers to cxa_virtual.cpp.o(.text.__cxa_pure_virtual) for __cxa_pure_virtual
    utest.o(.rodata._ZTV29ExecFunctionWithoutParameters) refers to utest.o(.rodata._ZTI29ExecFunctionWithoutParameters) for typeinfo for ExecFunctionWithoutParameters
    utest.o(.rodata._ZTV29ExecFunctionWithoutParameters) refers to utest.o(.text._ZN12ExecFunctionD2Ev) for ExecFunction::~ExecFunction__sub_object()
    utest.o(.rodata._ZTV29ExecFunctionWithoutParameters) refers to utest.o(.text._ZN29ExecFunctionWithoutParametersD0Ev) for ExecFunctionWithoutParameters::~ExecFunctionWithoutParameters__deallocating()
    utest.o(.rodata._ZTV29ExecFunctionWithoutParameters) refers to utest.o(.text._ZN29ExecFunctionWithoutParameters4execEv) for ExecFunctionWithoutParameters::exec()
    utest.o(.rodata._ZTV16ExecFunctionTest) refers to utest.o(.rodata._ZTI16ExecFunctionTest) for typeinfo for ExecFunctionTest
    utest.o(.rodata._ZTV16ExecFunctionTest) refers to utest.o(.text._ZN5UtestD2Ev) for Utest::~Utest__sub_object()
    utest.o(.rodata._ZTV16ExecFunctionTest) refers to utest.o(.text._ZN16ExecFunctionTestD0Ev) for ExecFunctionTest::~ExecFunctionTest__deallocating()
    utest.o(.rodata._ZTV16ExecFunctionTest) refers to utest.o(.text._ZN5Utest3runEv) for Utest::run()
    utest.o(.rodata._ZTV16ExecFunctionTest) refers to utest.o(.text._ZN16ExecFunctionTest5setupEv) for ExecFunctionTest::setup()
    utest.o(.rodata._ZTV16ExecFunctionTest) refers to utest.o(.text._ZN16ExecFunctionTest8teardownEv) for ExecFunctionTest::teardown()
    utest.o(.rodata._ZTV16ExecFunctionTest) refers to utest.o(.text._ZN16ExecFunctionTest8testBodyEv) for ExecFunctionTest::testBody()
    utest.o(.rodata._ZTV17IgnoredUtestShell) refers to utest.o(.rodata._ZTI17IgnoredUtestShell) for typeinfo for IgnoredUtestShell
    utest.o(.rodata._ZTV17IgnoredUtestShell) refers to utest.o(.text._ZN10UtestShellD2Ev) for UtestShell::~UtestShell__sub_object()
    utest.o(.rodata._ZTV17IgnoredUtestShell) refers to utest.o(.text._ZN17IgnoredUtestShellD0Ev) for IgnoredUtestShell::~IgnoredUtestShell__deallocating()
    utest.o(.rodata._ZTV17IgnoredUtestShell) refers to utest.o(.text._ZN10UtestShell7addTestEPS_) for UtestShell::addTest(UtestShell*)
    utest.o(.rodata._ZTV17IgnoredUtestShell) refers to utest.o(.text._ZNK10UtestShell7getNextEv) for UtestShell::getNext() const
    utest.o(.rodata._ZTV17IgnoredUtestShell) refers to utest.o(.text._ZN10UtestShell10countTestsEv) for UtestShell::countTests()
    utest.o(.rodata._ZTV17IgnoredUtestShell) refers to utest.o(.text._ZNK10UtestShell16getFormattedNameEv) for UtestShell::getFormattedName() const
    utest.o(.rodata._ZTV17IgnoredUtestShell) refers to utest.o(.text._ZNK17IgnoredUtestShell7willRunEv) for IgnoredUtestShell::willRun() const
    utest.o(.rodata._ZTV17IgnoredUtestShell) refers to utest.o(.text._ZNK10UtestShell9hasFailedEv) for UtestShell::hasFailed() const
    utest.o(.rodata._ZTV17IgnoredUtestShell) refers to utest.o(.text._ZN10UtestShell10assertTrueEbPKcS1_S1_S1_jRK14TestTerminator) for UtestShell::assertTrue(bool, const char*, const char*, const char*, const char*, unsigned, const TestTerminator&)
    utest.o(.rodata._ZTV17IgnoredUtestShell) refers to utest.o(.text._ZN10UtestShell15assertCstrEqualEPKcS1_S1_S1_jRK14TestTerminator) for UtestShell::assertCstrEqual(const char*, const char*, const char*, const char*, unsigned, const TestTerminator&)
    utest.o(.rodata._ZTV17IgnoredUtestShell) refers to utest.o(.text._ZN10UtestShell16assertCstrNEqualEPKcS1_jS1_S1_jRK14TestTerminator) for UtestShell::assertCstrNEqual(const char*, const char*, unsigned, const char*, const char*, unsigned, const TestTerminator&)
    utest.o(.rodata._ZTV17IgnoredUtestShell) refers to utest.o(.text._ZN10UtestShell21assertCstrNoCaseEqualEPKcS1_S1_S1_j) for UtestShell::assertCstrNoCaseEqual(const char*, const char*, const char*, const char*, unsigned)
    utest.o(.rodata._ZTV17IgnoredUtestShell) refers to utest.o(.text._ZN10UtestShell18assertCstrContainsEPKcS1_S1_S1_j) for UtestShell::assertCstrContains(const char*, const char*, const char*, const char*, unsigned)
    utest.o(.rodata._ZTV17IgnoredUtestShell) refers to utest.o(.text._ZN10UtestShell24assertCstrNoCaseContainsEPKcS1_S1_S1_j) for UtestShell::assertCstrNoCaseContains(const char*, const char*, const char*, const char*, unsigned)
    utest.o(.rodata._ZTV17IgnoredUtestShell) refers to utest.o(.text._ZN10UtestShell16assertLongsEqualEllPKcS1_jRK14TestTerminator) for UtestShell::assertLongsEqual(long, long, const char*, const char*, unsigned, const TestTerminator&)
    utest.o(.rodata._ZTV17IgnoredUtestShell) refers to utest.o(.text._ZN10UtestShell24assertUnsignedLongsEqualEmmPKcS1_jRK14TestTerminator) for UtestShell::assertUnsignedLongsEqual(unsigned long, unsigned long, const char*, const char*, unsigned, const TestTerminator&)
    utest.o(.rodata._ZTV17IgnoredUtestShell) refers to utest.o(.text._ZN10UtestShell20assertLongLongsEqualExxPKcS1_jRK14TestTerminator) for UtestShell::assertLongLongsEqual(long long, long long, const char*, const char*, unsigned, const TestTerminator&)
    utest.o(.rodata._ZTV17IgnoredUtestShell) refers to utest.o(.text._ZN10UtestShell28assertUnsignedLongLongsEqualEyyPKcS1_jRK14TestTerminator) for UtestShell::assertUnsignedLongLongsEqual(unsigned long long, unsigned long long, const char*, const char*, unsigned, const TestTerminator&)
    utest.o(.rodata._ZTV17IgnoredUtestShell) refers to utest.o(.text._ZN10UtestShell22assertSignedBytesEqualEaaPKcS1_jRK14TestTerminator) for UtestShell::assertSignedBytesEqual(signed char, signed char, const char*, const char*, unsigned, const TestTerminator&)
    utest.o(.rodata._ZTV17IgnoredUtestShell) refers to utest.o(.text._ZN10UtestShell19assertPointersEqualEPKvS1_PKcS3_jRK14TestTerminator) for UtestShell::assertPointersEqual(const void*, const void*, const char*, const char*, unsigned, const TestTerminator&)
    utest.o(.rodata._ZTV17IgnoredUtestShell) refers to utest.o(.text._ZN10UtestShell27assertFunctionPointersEqualEPFvvES1_PKcS3_jRK14TestTerminator) for UtestShell::assertFunctionPointersEqual(void(*)(), void(*)(), const char*, const char*, unsigned, const TestTerminator&)
    utest.o(.rodata._ZTV17IgnoredUtestShell) refers to utest.o(.text._ZN10UtestShell18assertDoublesEqualEdddPKcS1_jRK14TestTerminator) for UtestShell::assertDoublesEqual(double, double, double, const char*, const char*, unsigned, const TestTerminator&)
    utest.o(.rodata._ZTV17IgnoredUtestShell) refers to utest.o(.text._ZN10UtestShell12assertEqualsEbPKcS1_S1_S1_jRK14TestTerminator) for UtestShell::assertEquals(bool, const char*, const char*, const char*, const char*, unsigned, const TestTerminator&)
    utest.o(.rodata._ZTV17IgnoredUtestShell) refers to utest.o(.text._ZN10UtestShell17assertBinaryEqualEPKvS1_jPKcS3_jRK14TestTerminator) for UtestShell::assertBinaryEqual(const void*, const void*, unsigned, const char*, const char*, unsigned, const TestTerminator&)
    utest.o(.rodata._ZTV17IgnoredUtestShell) refers to utest.o(.text._ZN10UtestShell15assertBitsEqualEmmmjPKcS1_jRK14TestTerminator) for UtestShell::assertBitsEqual(unsigned long, unsigned long, unsigned long, unsigned, const char*, const char*, unsigned, const TestTerminator&)
    utest.o(.rodata._ZTV17IgnoredUtestShell) refers to utest.o(.text._ZN10UtestShell13assertCompareEbPKcS1_S1_S1_jRK14TestTerminator) for UtestShell::assertCompare(bool, const char*, const char*, const char*, const char*, unsigned, const TestTerminator&)
    utest.o(.rodata._ZTV17IgnoredUtestShell) refers to utest.o(.text._ZN10UtestShell4failEPKcS1_jRK14TestTerminator) for UtestShell::fail(const char*, const char*, unsigned, const TestTerminator&)
    utest.o(.rodata._ZTV17IgnoredUtestShell) refers to utest.o(.text._ZN10UtestShell8exitTestERK14TestTerminator) for UtestShell::exitTest(const TestTerminator&)
    utest.o(.rodata._ZTV17IgnoredUtestShell) refers to utest.o(.text._ZN10UtestShell5printEPKcS1_j) for UtestShell::print(const char*, const char*, unsigned)
    utest.o(.rodata._ZTV17IgnoredUtestShell) refers to utest.o(.text._ZN10UtestShell5printERK12SimpleStringPKcj) for UtestShell::print(const SimpleString&, const char*, unsigned)
    utest.o(.rodata._ZTV17IgnoredUtestShell) refers to utest.o(.text._ZN10UtestShell16printVeryVerboseEPKc) for UtestShell::printVeryVerbose(const char*)
    utest.o(.rodata._ZTV17IgnoredUtestShell) refers to utest.o(.text._ZNK10UtestShell22isRunInSeperateProcessEv) for UtestShell::isRunInSeperateProcess() const
    utest.o(.rodata._ZTV17IgnoredUtestShell) refers to utest.o(.text._ZN10UtestShell23setRunInSeperateProcessEv) for UtestShell::setRunInSeperateProcess()
    utest.o(.rodata._ZTV17IgnoredUtestShell) refers to utest.o(.text._ZN17IgnoredUtestShell13setRunIgnoredEv) for IgnoredUtestShell::setRunIgnored()
    utest.o(.rodata._ZTV17IgnoredUtestShell) refers to utest.o(.text._ZN10UtestShell10createTestEv) for UtestShell::createTest()
    utest.o(.rodata._ZTV17IgnoredUtestShell) refers to utest.o(.text._ZN10UtestShell11destroyTestEP5Utest) for UtestShell::destroyTest(Utest*)
    utest.o(.rodata._ZTV17IgnoredUtestShell) refers to utest.o(.text._ZN17IgnoredUtestShell10runOneTestEP10TestPluginR10TestResult) for IgnoredUtestShell::runOneTest(TestPlugin*, TestResult&)
    utest.o(.rodata._ZTV17IgnoredUtestShell) refers to utest.o(.text._ZN10UtestShell26runOneTestInCurrentProcessEP10TestPluginR10TestResult) for UtestShell::runOneTestInCurrentProcess(TestPlugin*, TestResult&)
    utest.o(.rodata._ZTV17IgnoredUtestShell) refers to utest.o(.text._ZN10UtestShell8failWithERK11TestFailure) for UtestShell::failWith(const TestFailure&)
    utest.o(.rodata._ZTV17IgnoredUtestShell) refers to utest.o(.text._ZN10UtestShell8failWithERK11TestFailureRK14TestTerminator) for UtestShell::failWith(const TestFailure&, const TestTerminator&)
    utest.o(.rodata._ZTV17IgnoredUtestShell) refers to utest.o(.text._ZNK17IgnoredUtestShell12getMacroNameEv) for IgnoredUtestShell::getMacroName() const
    utest.o(.rodata._ZTV13TestInstaller) refers to utest.o(.rodata._ZTI13TestInstaller) for typeinfo for TestInstaller
    utest.o(.rodata._ZTV13TestInstaller) refers to utest.o(.text._ZN13TestInstallerD2Ev) for TestInstaller::~TestInstaller__sub_object()
    utest.o(.rodata._ZTV13TestInstaller) refers to utest.o(.text._ZN13TestInstallerD0Ev) for TestInstaller::~TestInstaller__deallocating()
    utest.o(.rodata._ZTV14TestTerminator) refers to utest.o(.rodata._ZTI14TestTerminator) for typeinfo for TestTerminator
    utest.o(.rodata._ZTV14TestTerminator) refers to cxa_virtual.cpp.o(.text.__cxa_pure_virtual) for __cxa_pure_virtual
    utest.o(.rodata._ZTV14TestTerminator) refers to utest.o(.text._ZN14TestTerminatorD2Ev) for TestTerminator::~TestTerminator__sub_object()
    utest.o(.rodata._ZTV14TestTerminator) refers to utest.o(.text._ZN14TestTerminatorD0Ev) for TestTerminator::~TestTerminator__deallocating()
    utest.o(.rodata._ZTI14TestTerminator) refers to private_typeinfo.cpp.o(.rodata._ZTVN10__cxxabiv117__class_type_infoE) for vtable for __cxxabiv1::__class_type_info
    utest.o(.rodata._ZTI14TestTerminator) refers to utest.o(.rodata._ZTS14TestTerminator) for typeinfo name for TestTerminator
    utest.o(.rodata._ZTV20NormalTestTerminator) refers to utest.o(.rodata._ZTI20NormalTestTerminator) for typeinfo for NormalTestTerminator
    utest.o(.rodata._ZTV20NormalTestTerminator) refers to utest.o(.text._ZNK20NormalTestTerminator15exitCurrentTestEv) for NormalTestTerminator::exitCurrentTest() const
    utest.o(.rodata._ZTV20NormalTestTerminator) refers to utest.o(.text._ZN14TestTerminatorD2Ev) for TestTerminator::~TestTerminator__sub_object()
    utest.o(.rodata._ZTV20NormalTestTerminator) refers to utest.o(.text._ZN20NormalTestTerminatorD0Ev) for NormalTestTerminator::~NormalTestTerminator__deallocating()
    utest.o(.rodata._ZTI20NormalTestTerminator) refers to private_typeinfo.cpp.o(.rodata._ZTVN10__cxxabiv120__si_class_type_infoE) for vtable for __cxxabiv1::__si_class_type_info
    utest.o(.rodata._ZTI20NormalTestTerminator) refers to utest.o(.rodata._ZTS20NormalTestTerminator) for typeinfo name for NormalTestTerminator
    utest.o(.rodata._ZTI20NormalTestTerminator) refers to utest.o(.rodata._ZTI14TestTerminator) for typeinfo for TestTerminator
    utest.o(.rodata._ZTV22CrashingTestTerminator) refers to utest.o(.rodata._ZTI22CrashingTestTerminator) for typeinfo for CrashingTestTerminator
    utest.o(.rodata._ZTV22CrashingTestTerminator) refers to utest.o(.text._ZNK22CrashingTestTerminator15exitCurrentTestEv) for CrashingTestTerminator::exitCurrentTest() const
    utest.o(.rodata._ZTV22CrashingTestTerminator) refers to utest.o(.text._ZN14TestTerminatorD2Ev) for TestTerminator::~TestTerminator__sub_object()
    utest.o(.rodata._ZTV22CrashingTestTerminator) refers to utest.o(.text._ZN22CrashingTestTerminatorD0Ev) for CrashingTestTerminator::~CrashingTestTerminator__deallocating()
    utest.o(.rodata._ZTI22CrashingTestTerminator) refers to private_typeinfo.cpp.o(.rodata._ZTVN10__cxxabiv120__si_class_type_infoE) for vtable for __cxxabiv1::__si_class_type_info
    utest.o(.rodata._ZTI22CrashingTestTerminator) refers to utest.o(.rodata._ZTS22CrashingTestTerminator) for typeinfo name for CrashingTestTerminator
    utest.o(.rodata._ZTI22CrashingTestTerminator) refers to utest.o(.rodata._ZTI20NormalTestTerminator) for typeinfo for NormalTestTerminator
    utest.o(.rodata._ZTV21ExecFunctionTestShell) refers to utest.o(.rodata._ZTI21ExecFunctionTestShell) for typeinfo for ExecFunctionTestShell
    utest.o(.rodata._ZTV21ExecFunctionTestShell) refers to utest.o(.text._ZN10UtestShellD2Ev) for UtestShell::~UtestShell__sub_object()
    utest.o(.rodata._ZTV21ExecFunctionTestShell) refers to utest.o(.text._ZN21ExecFunctionTestShellD0Ev) for ExecFunctionTestShell::~ExecFunctionTestShell__deallocating()
    utest.o(.rodata._ZTV21ExecFunctionTestShell) refers to utest.o(.text._ZN10UtestShell7addTestEPS_) for UtestShell::addTest(UtestShell*)
    utest.o(.rodata._ZTV21ExecFunctionTestShell) refers to utest.o(.text._ZNK10UtestShell7getNextEv) for UtestShell::getNext() const
    utest.o(.rodata._ZTV21ExecFunctionTestShell) refers to utest.o(.text._ZN10UtestShell10countTestsEv) for UtestShell::countTests()
    utest.o(.rodata._ZTV21ExecFunctionTestShell) refers to utest.o(.text._ZNK10UtestShell16getFormattedNameEv) for UtestShell::getFormattedName() const
    utest.o(.rodata._ZTV21ExecFunctionTestShell) refers to utest.o(.text._ZNK10UtestShell7willRunEv) for UtestShell::willRun() const
    utest.o(.rodata._ZTV21ExecFunctionTestShell) refers to utest.o(.text._ZNK10UtestShell9hasFailedEv) for UtestShell::hasFailed() const
    utest.o(.rodata._ZTV21ExecFunctionTestShell) refers to utest.o(.text._ZN10UtestShell10assertTrueEbPKcS1_S1_S1_jRK14TestTerminator) for UtestShell::assertTrue(bool, const char*, const char*, const char*, const char*, unsigned, const TestTerminator&)
    utest.o(.rodata._ZTV21ExecFunctionTestShell) refers to utest.o(.text._ZN10UtestShell15assertCstrEqualEPKcS1_S1_S1_jRK14TestTerminator) for UtestShell::assertCstrEqual(const char*, const char*, const char*, const char*, unsigned, const TestTerminator&)
    utest.o(.rodata._ZTV21ExecFunctionTestShell) refers to utest.o(.text._ZN10UtestShell16assertCstrNEqualEPKcS1_jS1_S1_jRK14TestTerminator) for UtestShell::assertCstrNEqual(const char*, const char*, unsigned, const char*, const char*, unsigned, const TestTerminator&)
    utest.o(.rodata._ZTV21ExecFunctionTestShell) refers to utest.o(.text._ZN10UtestShell21assertCstrNoCaseEqualEPKcS1_S1_S1_j) for UtestShell::assertCstrNoCaseEqual(const char*, const char*, const char*, const char*, unsigned)
    utest.o(.rodata._ZTV21ExecFunctionTestShell) refers to utest.o(.text._ZN10UtestShell18assertCstrContainsEPKcS1_S1_S1_j) for UtestShell::assertCstrContains(const char*, const char*, const char*, const char*, unsigned)
    utest.o(.rodata._ZTV21ExecFunctionTestShell) refers to utest.o(.text._ZN10UtestShell24assertCstrNoCaseContainsEPKcS1_S1_S1_j) for UtestShell::assertCstrNoCaseContains(const char*, const char*, const char*, const char*, unsigned)
    utest.o(.rodata._ZTV21ExecFunctionTestShell) refers to utest.o(.text._ZN10UtestShell16assertLongsEqualEllPKcS1_jRK14TestTerminator) for UtestShell::assertLongsEqual(long, long, const char*, const char*, unsigned, const TestTerminator&)
    utest.o(.rodata._ZTV21ExecFunctionTestShell) refers to utest.o(.text._ZN10UtestShell24assertUnsignedLongsEqualEmmPKcS1_jRK14TestTerminator) for UtestShell::assertUnsignedLongsEqual(unsigned long, unsigned long, const char*, const char*, unsigned, const TestTerminator&)
    utest.o(.rodata._ZTV21ExecFunctionTestShell) refers to utest.o(.text._ZN10UtestShell20assertLongLongsEqualExxPKcS1_jRK14TestTerminator) for UtestShell::assertLongLongsEqual(long long, long long, const char*, const char*, unsigned, const TestTerminator&)
    utest.o(.rodata._ZTV21ExecFunctionTestShell) refers to utest.o(.text._ZN10UtestShell28assertUnsignedLongLongsEqualEyyPKcS1_jRK14TestTerminator) for UtestShell::assertUnsignedLongLongsEqual(unsigned long long, unsigned long long, const char*, const char*, unsigned, const TestTerminator&)
    utest.o(.rodata._ZTV21ExecFunctionTestShell) refers to utest.o(.text._ZN10UtestShell22assertSignedBytesEqualEaaPKcS1_jRK14TestTerminator) for UtestShell::assertSignedBytesEqual(signed char, signed char, const char*, const char*, unsigned, const TestTerminator&)
    utest.o(.rodata._ZTV21ExecFunctionTestShell) refers to utest.o(.text._ZN10UtestShell19assertPointersEqualEPKvS1_PKcS3_jRK14TestTerminator) for UtestShell::assertPointersEqual(const void*, const void*, const char*, const char*, unsigned, const TestTerminator&)
    utest.o(.rodata._ZTV21ExecFunctionTestShell) refers to utest.o(.text._ZN10UtestShell27assertFunctionPointersEqualEPFvvES1_PKcS3_jRK14TestTerminator) for UtestShell::assertFunctionPointersEqual(void(*)(), void(*)(), const char*, const char*, unsigned, const TestTerminator&)
    utest.o(.rodata._ZTV21ExecFunctionTestShell) refers to utest.o(.text._ZN10UtestShell18assertDoublesEqualEdddPKcS1_jRK14TestTerminator) for UtestShell::assertDoublesEqual(double, double, double, const char*, const char*, unsigned, const TestTerminator&)
    utest.o(.rodata._ZTV21ExecFunctionTestShell) refers to utest.o(.text._ZN10UtestShell12assertEqualsEbPKcS1_S1_S1_jRK14TestTerminator) for UtestShell::assertEquals(bool, const char*, const char*, const char*, const char*, unsigned, const TestTerminator&)
    utest.o(.rodata._ZTV21ExecFunctionTestShell) refers to utest.o(.text._ZN10UtestShell17assertBinaryEqualEPKvS1_jPKcS3_jRK14TestTerminator) for UtestShell::assertBinaryEqual(const void*, const void*, unsigned, const char*, const char*, unsigned, const TestTerminator&)
    utest.o(.rodata._ZTV21ExecFunctionTestShell) refers to utest.o(.text._ZN10UtestShell15assertBitsEqualEmmmjPKcS1_jRK14TestTerminator) for UtestShell::assertBitsEqual(unsigned long, unsigned long, unsigned long, unsigned, const char*, const char*, unsigned, const TestTerminator&)
    utest.o(.rodata._ZTV21ExecFunctionTestShell) refers to utest.o(.text._ZN10UtestShell13assertCompareEbPKcS1_S1_S1_jRK14TestTerminator) for UtestShell::assertCompare(bool, const char*, const char*, const char*, const char*, unsigned, const TestTerminator&)
    utest.o(.rodata._ZTV21ExecFunctionTestShell) refers to utest.o(.text._ZN10UtestShell4failEPKcS1_jRK14TestTerminator) for UtestShell::fail(const char*, const char*, unsigned, const TestTerminator&)
    utest.o(.rodata._ZTV21ExecFunctionTestShell) refers to utest.o(.text._ZN10UtestShell8exitTestERK14TestTerminator) for UtestShell::exitTest(const TestTerminator&)
    utest.o(.rodata._ZTV21ExecFunctionTestShell) refers to utest.o(.text._ZN10UtestShell5printEPKcS1_j) for UtestShell::print(const char*, const char*, unsigned)
    utest.o(.rodata._ZTV21ExecFunctionTestShell) refers to utest.o(.text._ZN10UtestShell5printERK12SimpleStringPKcj) for UtestShell::print(const SimpleString&, const char*, unsigned)
    utest.o(.rodata._ZTV21ExecFunctionTestShell) refers to utest.o(.text._ZN10UtestShell16printVeryVerboseEPKc) for UtestShell::printVeryVerbose(const char*)
    utest.o(.rodata._ZTV21ExecFunctionTestShell) refers to utest.o(.text._ZNK10UtestShell22isRunInSeperateProcessEv) for UtestShell::isRunInSeperateProcess() const
    utest.o(.rodata._ZTV21ExecFunctionTestShell) refers to utest.o(.text._ZN10UtestShell23setRunInSeperateProcessEv) for UtestShell::setRunInSeperateProcess()
    utest.o(.rodata._ZTV21ExecFunctionTestShell) refers to utest.o(.text._ZN10UtestShell13setRunIgnoredEv) for UtestShell::setRunIgnored()
    utest.o(.rodata._ZTV21ExecFunctionTestShell) refers to utest.o(.text._ZN21ExecFunctionTestShell10createTestEv) for ExecFunctionTestShell::createTest()
    utest.o(.rodata._ZTV21ExecFunctionTestShell) refers to utest.o(.text._ZN10UtestShell11destroyTestEP5Utest) for UtestShell::destroyTest(Utest*)
    utest.o(.rodata._ZTV21ExecFunctionTestShell) refers to utest.o(.text._ZN10UtestShell10runOneTestEP10TestPluginR10TestResult) for UtestShell::runOneTest(TestPlugin*, TestResult&)
    utest.o(.rodata._ZTV21ExecFunctionTestShell) refers to utest.o(.text._ZN10UtestShell26runOneTestInCurrentProcessEP10TestPluginR10TestResult) for UtestShell::runOneTestInCurrentProcess(TestPlugin*, TestResult&)
    utest.o(.rodata._ZTV21ExecFunctionTestShell) refers to utest.o(.text._ZN10UtestShell8failWithERK11TestFailure) for UtestShell::failWith(const TestFailure&)
    utest.o(.rodata._ZTV21ExecFunctionTestShell) refers to utest.o(.text._ZN10UtestShell8failWithERK11TestFailureRK14TestTerminator) for UtestShell::failWith(const TestFailure&, const TestTerminator&)
    utest.o(.rodata._ZTV21ExecFunctionTestShell) refers to utest.o(.text._ZNK10UtestShell12getMacroNameEv) for UtestShell::getMacroName() const
    utest.o(.rodata._ZTI10UtestShell) refers to private_typeinfo.cpp.o(.rodata._ZTVN10__cxxabiv117__class_type_infoE) for vtable for __cxxabiv1::__class_type_info
    utest.o(.rodata._ZTI10UtestShell) refers to utest.o(.rodata._ZTS10UtestShell) for typeinfo name for UtestShell
    utest.o(.rodata._ZTI21ExecFunctionTestShell) refers to private_typeinfo.cpp.o(.rodata._ZTVN10__cxxabiv120__si_class_type_infoE) for vtable for __cxxabiv1::__si_class_type_info
    utest.o(.rodata._ZTI21ExecFunctionTestShell) refers to utest.o(.rodata._ZTS21ExecFunctionTestShell) for typeinfo name for ExecFunctionTestShell
    utest.o(.rodata._ZTI21ExecFunctionTestShell) refers to utest.o(.rodata._ZTI10UtestShell) for typeinfo for UtestShell
    utest.o(.rodata._ZTI5Utest) refers to private_typeinfo.cpp.o(.rodata._ZTVN10__cxxabiv117__class_type_infoE) for vtable for __cxxabiv1::__class_type_info
    utest.o(.rodata._ZTI5Utest) refers to utest.o(.rodata._ZTS5Utest) for typeinfo name for Utest
    utest.o(.rodata._ZTV31TestTerminatorWithoutExceptions) refers to utest.o(.rodata._ZTI31TestTerminatorWithoutExceptions) for typeinfo for TestTerminatorWithoutExceptions
    utest.o(.rodata._ZTV31TestTerminatorWithoutExceptions) refers to utest.o(.text._ZNK31TestTerminatorWithoutExceptions15exitCurrentTestEv) for TestTerminatorWithoutExceptions::exitCurrentTest() const
    utest.o(.rodata._ZTV31TestTerminatorWithoutExceptions) refers to utest.o(.text._ZN14TestTerminatorD2Ev) for TestTerminator::~TestTerminator__sub_object()
    utest.o(.rodata._ZTV31TestTerminatorWithoutExceptions) refers to utest.o(.text._ZN31TestTerminatorWithoutExceptionsD0Ev) for TestTerminatorWithoutExceptions::~TestTerminatorWithoutExceptions__deallocating()
    utest.o(.rodata._ZTI31TestTerminatorWithoutExceptions) refers to private_typeinfo.cpp.o(.rodata._ZTVN10__cxxabiv120__si_class_type_infoE) for vtable for __cxxabiv1::__si_class_type_info
    utest.o(.rodata._ZTI31TestTerminatorWithoutExceptions) refers to utest.o(.rodata._ZTS31TestTerminatorWithoutExceptions) for typeinfo name for TestTerminatorWithoutExceptions
    utest.o(.rodata._ZTI31TestTerminatorWithoutExceptions) refers to utest.o(.rodata._ZTI14TestTerminator) for typeinfo for TestTerminator
    utest.o(.rodata._ZTI12ExecFunction) refers to private_typeinfo.cpp.o(.rodata._ZTVN10__cxxabiv117__class_type_infoE) for vtable for __cxxabiv1::__class_type_info
    utest.o(.rodata._ZTI12ExecFunction) refers to utest.o(.rodata._ZTS12ExecFunction) for typeinfo name for ExecFunction
    utest.o(.rodata._ZTI29ExecFunctionWithoutParameters) refers to private_typeinfo.cpp.o(.rodata._ZTVN10__cxxabiv120__si_class_type_infoE) for vtable for __cxxabiv1::__si_class_type_info
    utest.o(.rodata._ZTI29ExecFunctionWithoutParameters) refers to utest.o(.rodata._ZTS29ExecFunctionWithoutParameters) for typeinfo name for ExecFunctionWithoutParameters
    utest.o(.rodata._ZTI29ExecFunctionWithoutParameters) refers to utest.o(.rodata._ZTI12ExecFunction) for typeinfo for ExecFunction
    utest.o(.rodata._ZTI16ExecFunctionTest) refers to private_typeinfo.cpp.o(.rodata._ZTVN10__cxxabiv120__si_class_type_infoE) for vtable for __cxxabiv1::__si_class_type_info
    utest.o(.rodata._ZTI16ExecFunctionTest) refers to utest.o(.rodata._ZTS16ExecFunctionTest) for typeinfo name for ExecFunctionTest
    utest.o(.rodata._ZTI16ExecFunctionTest) refers to utest.o(.rodata._ZTI5Utest) for typeinfo for Utest
    utest.o(.rodata._ZTI17IgnoredUtestShell) refers to private_typeinfo.cpp.o(.rodata._ZTVN10__cxxabiv120__si_class_type_infoE) for vtable for __cxxabiv1::__si_class_type_info
    utest.o(.rodata._ZTI17IgnoredUtestShell) refers to utest.o(.rodata._ZTS17IgnoredUtestShell) for typeinfo name for IgnoredUtestShell
    utest.o(.rodata._ZTI17IgnoredUtestShell) refers to utest.o(.rodata._ZTI10UtestShell) for typeinfo for UtestShell
    utest.o(.rodata._ZTI13TestInstaller) refers to private_typeinfo.cpp.o(.rodata._ZTVN10__cxxabiv117__class_type_infoE) for vtable for __cxxabiv1::__class_type_info
    utest.o(.rodata._ZTI13TestInstaller) refers to utest.o(.rodata._ZTS13TestInstaller) for typeinfo name for TestInstaller
    utest.o(.data..L_MergedGlobals) refers to utest.o(.rodata._ZTV20NormalTestTerminator) for vtable for NormalTestTerminator
    utest.o(.data..L_MergedGlobals) refers to utest.o(.rodata._ZTV22CrashingTestTerminator) for vtable for CrashingTestTerminator
    commandlinearguments.o(.text._ZN20CommandLineArgumentsC2EiPKPKc) refers to simplestring.o(.text._ZN12SimpleStringC2EPKc) for SimpleString::SimpleString(const char*)
    commandlinearguments.o(.text._ZN20CommandLineArgumentsC2EiPKPKc) refers to commandlinearguments.o(.rodata._ZTV20CommandLineArguments) for vtable for CommandLineArguments
    commandlinearguments.o(.text._ZN20CommandLineArgumentsC2EiPKPKc) refers to commandlinearguments.o(.rodata.str1.1) for .L.str
    commandlinearguments.o(.ARM.exidx.text._ZN20CommandLineArgumentsC2EiPKPKc) refers to commandlinearguments.o(.text._ZN20CommandLineArgumentsC2EiPKPKc) for [Anonymous Symbol]
    commandlinearguments.o(.text._ZN20CommandLineArgumentsD2Ev) refers to testfilter.o(.text._ZNK10TestFilter7getNextEv) for TestFilter::getNext() const
    commandlinearguments.o(.text._ZN20CommandLineArgumentsD2Ev) refers to simplestring.o(.text._ZN12SimpleStringD2Ev) for SimpleString::~SimpleString()
    commandlinearguments.o(.text._ZN20CommandLineArgumentsD2Ev) refers to memoryleakwarningplugin.o(.text._ZdlPv) for operator delete (void*)
    commandlinearguments.o(.text._ZN20CommandLineArgumentsD2Ev) refers to commandlinearguments.o(.rodata._ZTV20CommandLineArguments) for vtable for CommandLineArguments
    commandlinearguments.o(.ARM.exidx.text._ZN20CommandLineArgumentsD2Ev) refers to commandlinearguments.o(.text._ZN20CommandLineArgumentsD2Ev) for [Anonymous Symbol]
    commandlinearguments.o(.text._ZN20CommandLineArgumentsD0Ev) refers to commandlinearguments.o(.text._ZN20CommandLineArgumentsD2Ev) for CommandLineArguments::~CommandLineArguments__sub_object()
    commandlinearguments.o(.text._ZN20CommandLineArgumentsD0Ev) refers to memoryleakwarningplugin.o(.text._ZdlPv) for operator delete (void*)
    commandlinearguments.o(.ARM.exidx.text._ZN20CommandLineArgumentsD0Ev) refers to commandlinearguments.o(.text._ZN20CommandLineArgumentsD0Ev) for [Anonymous Symbol]
    commandlinearguments.o(.text._ZN20CommandLineArguments5parseEP10TestPlugin) refers to simplestring.o(.text._ZN12SimpleStringC2EPKc) for SimpleString::SimpleString(const char*)
    commandlinearguments.o(.text._ZN20CommandLineArguments5parseEP10TestPlugin) refers to simplestring.o(.text._ZeqRK12SimpleStringS1_) for operator ==(const SimpleString&, const SimpleString&)
    commandlinearguments.o(.text._ZN20CommandLineArguments5parseEP10TestPlugin) refers to simplestring.o(.text._ZN12SimpleStringD2Ev) for SimpleString::~SimpleString()
    commandlinearguments.o(.text._ZN20CommandLineArguments5parseEP10TestPlugin) refers to simplestring.o(.text._ZNK12SimpleString10startsWithERKS_) for SimpleString::startsWith(const SimpleString&) const
    commandlinearguments.o(.text._ZN20CommandLineArguments5parseEP10TestPlugin) refers to commandlinearguments.o(.text._ZN20CommandLineArguments14setRepeatCountEiPKPKcRi) for CommandLineArguments::setRepeatCount(int, const char*const *, int&)
    commandlinearguments.o(.text._ZN20CommandLineArguments5parseEP10TestPlugin) refers to commandlinearguments.o(.text._ZN20CommandLineArguments14addGroupFilterEiPKPKcRi) for CommandLineArguments::addGroupFilter(int, const char*const *, int&)
    commandlinearguments.o(.text._ZN20CommandLineArguments5parseEP10TestPlugin) refers to commandlinearguments.o(.text._ZN20CommandLineArguments21addGroupDotNameFilterEiPKPKcRi) for CommandLineArguments::addGroupDotNameFilter(int, const char*const *, int&)
    commandlinearguments.o(.text._ZN20CommandLineArguments5parseEP10TestPlugin) refers to commandlinearguments.o(.text._ZN20CommandLineArguments20addStrictGroupFilterEiPKPKcRi) for CommandLineArguments::addStrictGroupFilter(int, const char*const *, int&)
    commandlinearguments.o(.text._ZN20CommandLineArguments5parseEP10TestPlugin) refers to commandlinearguments.o(.text._ZN20CommandLineArguments21addExcludeGroupFilterEiPKPKcRi) for CommandLineArguments::addExcludeGroupFilter(int, const char*const *, int&)
    commandlinearguments.o(.text._ZN20CommandLineArguments5parseEP10TestPlugin) refers to commandlinearguments.o(.text._ZN20CommandLineArguments27addExcludeStrictGroupFilterEiPKPKcRi) for CommandLineArguments::addExcludeStrictGroupFilter(int, const char*const *, int&)
    commandlinearguments.o(.text._ZN20CommandLineArguments5parseEP10TestPlugin) refers to commandlinearguments.o(.text._ZN20CommandLineArguments13addNameFilterEiPKPKcRi) for CommandLineArguments::addNameFilter(int, const char*const *, int&)
    commandlinearguments.o(.text._ZN20CommandLineArguments5parseEP10TestPlugin) refers to commandlinearguments.o(.text._ZN20CommandLineArguments19addStrictNameFilterEiPKPKcRi) for CommandLineArguments::addStrictNameFilter(int, const char*const *, int&)
    commandlinearguments.o(.text._ZN20CommandLineArguments5parseEP10TestPlugin) refers to commandlinearguments.o(.text._ZN20CommandLineArguments20addExcludeNameFilterEiPKPKcRi) for CommandLineArguments::addExcludeNameFilter(int, const char*const *, int&)
    commandlinearguments.o(.text._ZN20CommandLineArguments5parseEP10TestPlugin) refers to commandlinearguments.o(.text._ZN20CommandLineArguments26addExcludeStrictNameFilterEiPKPKcRi) for CommandLineArguments::addExcludeStrictNameFilter(int, const char*const *, int&)
    commandlinearguments.o(.text._ZN20CommandLineArguments5parseEP10TestPlugin) refers to commandlinearguments.o(.text._ZN20CommandLineArguments10setShuffleEiPKPKcRi) for CommandLineArguments::setShuffle(int, const char*const *, int&)
    commandlinearguments.o(.text._ZN20CommandLineArguments5parseEP10TestPlugin) refers to commandlinearguments.o(.text._ZN20CommandLineArguments32addTestToRunBasedOnVerboseOutputEiPKPKcRiS1_) for CommandLineArguments::addTestToRunBasedOnVerboseOutput(int, const char*const *, int&, const char*)
    commandlinearguments.o(.text._ZN20CommandLineArguments5parseEP10TestPlugin) refers to commandlinearguments.o(.text._ZN20CommandLineArguments13setOutputTypeEiPKPKcRi) for CommandLineArguments::setOutputType(int, const char*const *, int&)
    commandlinearguments.o(.text._ZN20CommandLineArguments5parseEP10TestPlugin) refers to commandlinearguments.o(.text._ZN20CommandLineArguments14setPackageNameEiPKPKcRi) for CommandLineArguments::setPackageName(int, const char*const *, int&)
    commandlinearguments.o(.text._ZN20CommandLineArguments5parseEP10TestPlugin) refers to commandlinearguments.o(.rodata.str1.1) for .L.str.5
    commandlinearguments.o(.ARM.exidx.text._ZN20CommandLineArguments5parseEP10TestPlugin) refers to commandlinearguments.o(.text._ZN20CommandLineArguments5parseEP10TestPlugin) for [Anonymous Symbol]
    commandlinearguments.o(.text._ZN20CommandLineArguments14setRepeatCountEiPKPKcRi) refers to simplestring.o(.text._ZN12SimpleStringC2EPKc) for SimpleString::SimpleString(const char*)
    commandlinearguments.o(.text._ZN20CommandLineArguments14setRepeatCountEiPKPKcRi) refers to simplestring.o(.text._ZNK12SimpleString4sizeEv) for SimpleString::size() const
    commandlinearguments.o(.text._ZN20CommandLineArguments14setRepeatCountEiPKPKcRi) refers to simplestring.o(.text._ZN12SimpleString4AtoIEPKc) for SimpleString::AtoI(const char*)
    commandlinearguments.o(.text._ZN20CommandLineArguments14setRepeatCountEiPKPKcRi) refers to simplestring.o(.text._ZN12SimpleStringD2Ev) for SimpleString::~SimpleString()
    commandlinearguments.o(.ARM.exidx.text._ZN20CommandLineArguments14setRepeatCountEiPKPKcRi) refers to commandlinearguments.o(.text._ZN20CommandLineArguments14setRepeatCountEiPKPKcRi) for [Anonymous Symbol]
    commandlinearguments.o(.text._ZN20CommandLineArguments14addGroupFilterEiPKPKcRi) refers to memoryleakwarningplugin.o(.text._ZnwjPKci) for operator new(unsigned, const char*, int)
    commandlinearguments.o(.text._ZN20CommandLineArguments14addGroupFilterEiPKPKcRi) refers to simplestring.o(.text._ZN12SimpleStringC2EPKc) for SimpleString::SimpleString(const char*)
    commandlinearguments.o(.text._ZN20CommandLineArguments14addGroupFilterEiPKPKcRi) refers to commandlinearguments.o(.text._ZN20CommandLineArguments17getParameterFieldEiPKPKcRiRK12SimpleString) for CommandLineArguments::getParameterField(int, const char*const *, int&, const SimpleString&)
    commandlinearguments.o(.text._ZN20CommandLineArguments14addGroupFilterEiPKPKcRi) refers to testfilter.o(.text._ZN10TestFilterC2ERK12SimpleString) for TestFilter::TestFilter(const SimpleString&)
    commandlinearguments.o(.text._ZN20CommandLineArguments14addGroupFilterEiPKPKcRi) refers to simplestring.o(.text._ZN12SimpleStringD2Ev) for SimpleString::~SimpleString()
    commandlinearguments.o(.text._ZN20CommandLineArguments14addGroupFilterEiPKPKcRi) refers to testfilter.o(.text._ZN10TestFilter3addEPS_) for TestFilter::add(TestFilter*)
    commandlinearguments.o(.text._ZN20CommandLineArguments14addGroupFilterEiPKPKcRi) refers to commandlinearguments.o(.rodata.str1.1) for .L.str.29
    commandlinearguments.o(.ARM.exidx.text._ZN20CommandLineArguments14addGroupFilterEiPKPKcRi) refers to commandlinearguments.o(.text._ZN20CommandLineArguments14addGroupFilterEiPKPKcRi) for [Anonymous Symbol]
    commandlinearguments.o(.text._ZN20CommandLineArguments21addGroupDotNameFilterEiPKPKcRi) refers to simplestring.o(.text._ZN12SimpleStringC2EPKc) for SimpleString::SimpleString(const char*)
    commandlinearguments.o(.text._ZN20CommandLineArguments21addGroupDotNameFilterEiPKPKcRi) refers to commandlinearguments.o(.text._ZN20CommandLineArguments17getParameterFieldEiPKPKcRiRK12SimpleString) for CommandLineArguments::getParameterField(int, const char*const *, int&, const SimpleString&)
    commandlinearguments.o(.text._ZN20CommandLineArguments21addGroupDotNameFilterEiPKPKcRi) refers to simplestring.o(.text._ZN12SimpleStringD2Ev) for SimpleString::~SimpleString()
    commandlinearguments.o(.text._ZN20CommandLineArguments21addGroupDotNameFilterEiPKPKcRi) refers to simplestring.o(.text._ZN22SimpleStringCollectionC2Ev) for SimpleStringCollection::SimpleStringCollection()
    commandlinearguments.o(.text._ZN20CommandLineArguments21addGroupDotNameFilterEiPKPKcRi) refers to simplestring.o(.text._ZNK12SimpleString5splitERKS_R22SimpleStringCollection) for SimpleString::split(const SimpleString&, SimpleStringCollection&) const
    commandlinearguments.o(.text._ZN20CommandLineArguments21addGroupDotNameFilterEiPKPKcRi) refers to simplestring.o(.text._ZNK22SimpleStringCollection4sizeEv) for SimpleStringCollection::size() const
    commandlinearguments.o(.text._ZN20CommandLineArguments21addGroupDotNameFilterEiPKPKcRi) refers to memoryleakwarningplugin.o(.text._ZnwjPKci) for operator new(unsigned, const char*, int)
    commandlinearguments.o(.text._ZN20CommandLineArguments21addGroupDotNameFilterEiPKPKcRi) refers to simplestring.o(.text._ZNK12SimpleString4sizeEv) for SimpleString::size() const
    commandlinearguments.o(.text._ZN20CommandLineArguments21addGroupDotNameFilterEiPKPKcRi) refers to simplestring.o(.text._ZNK12SimpleString9subStringEjj) for SimpleString::subString(unsigned, unsigned) const
    commandlinearguments.o(.text._ZN20CommandLineArguments21addGroupDotNameFilterEiPKPKcRi) refers to testfilter.o(.text._ZN10TestFilterC2ERK12SimpleString) for TestFilter::TestFilter(const SimpleString&)
    commandlinearguments.o(.text._ZN20CommandLineArguments21addGroupDotNameFilterEiPKPKcRi) refers to testfilter.o(.text._ZN10TestFilter3addEPS_) for TestFilter::add(TestFilter*)
    commandlinearguments.o(.text._ZN20CommandLineArguments21addGroupDotNameFilterEiPKPKcRi) refers to simplestring.o(.text._ZN22SimpleStringCollectionD2Ev) for SimpleStringCollection::~SimpleStringCollection()
    commandlinearguments.o(.text._ZN20CommandLineArguments21addGroupDotNameFilterEiPKPKcRi) refers to commandlinearguments.o(.rodata.str1.1) for .L.str.14
    commandlinearguments.o(.text._ZN20CommandLineArguments21addGroupDotNameFilterEiPKPKcRi) refers to simplestring.o(.text._ZN22SimpleStringCollectionixEj) for SimpleStringCollection::operator [](unsigned)
    commandlinearguments.o(.ARM.exidx.text._ZN20CommandLineArguments21addGroupDotNameFilterEiPKPKcRi) refers to commandlinearguments.o(.text._ZN20CommandLineArguments21addGroupDotNameFilterEiPKPKcRi) for [Anonymous Symbol]
    commandlinearguments.o(.text._ZN20CommandLineArguments20addStrictGroupFilterEiPKPKcRi) refers to memoryleakwarningplugin.o(.text._ZnwjPKci) for operator new(unsigned, const char*, int)
    commandlinearguments.o(.text._ZN20CommandLineArguments20addStrictGroupFilterEiPKPKcRi) refers to simplestring.o(.text._ZN12SimpleStringC2EPKc) for SimpleString::SimpleString(const char*)
    commandlinearguments.o(.text._ZN20CommandLineArguments20addStrictGroupFilterEiPKPKcRi) refers to commandlinearguments.o(.text._ZN20CommandLineArguments17getParameterFieldEiPKPKcRiRK12SimpleString) for CommandLineArguments::getParameterField(int, const char*const *, int&, const SimpleString&)
    commandlinearguments.o(.text._ZN20CommandLineArguments20addStrictGroupFilterEiPKPKcRi) refers to testfilter.o(.text._ZN10TestFilterC2ERK12SimpleString) for TestFilter::TestFilter(const SimpleString&)
    commandlinearguments.o(.text._ZN20CommandLineArguments20addStrictGroupFilterEiPKPKcRi) refers to simplestring.o(.text._ZN12SimpleStringD2Ev) for SimpleString::~SimpleString()
    commandlinearguments.o(.text._ZN20CommandLineArguments20addStrictGroupFilterEiPKPKcRi) refers to testfilter.o(.text._ZN10TestFilter14strictMatchingEv) for TestFilter::strictMatching()
    commandlinearguments.o(.text._ZN20CommandLineArguments20addStrictGroupFilterEiPKPKcRi) refers to testfilter.o(.text._ZN10TestFilter3addEPS_) for TestFilter::add(TestFilter*)
    commandlinearguments.o(.text._ZN20CommandLineArguments20addStrictGroupFilterEiPKPKcRi) refers to commandlinearguments.o(.rodata.str1.1) for .L.str.29
    commandlinearguments.o(.ARM.exidx.text._ZN20CommandLineArguments20addStrictGroupFilterEiPKPKcRi) refers to commandlinearguments.o(.text._ZN20CommandLineArguments20addStrictGroupFilterEiPKPKcRi) for [Anonymous Symbol]
    commandlinearguments.o(.text._ZN20CommandLineArguments21addExcludeGroupFilterEiPKPKcRi) refers to memoryleakwarningplugin.o(.text._ZnwjPKci) for operator new(unsigned, const char*, int)
    commandlinearguments.o(.text._ZN20CommandLineArguments21addExcludeGroupFilterEiPKPKcRi) refers to simplestring.o(.text._ZN12SimpleStringC2EPKc) for SimpleString::SimpleString(const char*)
    commandlinearguments.o(.text._ZN20CommandLineArguments21addExcludeGroupFilterEiPKPKcRi) refers to commandlinearguments.o(.text._ZN20CommandLineArguments17getParameterFieldEiPKPKcRiRK12SimpleString) for CommandLineArguments::getParameterField(int, const char*const *, int&, const SimpleString&)
    commandlinearguments.o(.text._ZN20CommandLineArguments21addExcludeGroupFilterEiPKPKcRi) refers to testfilter.o(.text._ZN10TestFilterC2ERK12SimpleString) for TestFilter::TestFilter(const SimpleString&)
    commandlinearguments.o(.text._ZN20CommandLineArguments21addExcludeGroupFilterEiPKPKcRi) refers to simplestring.o(.text._ZN12SimpleStringD2Ev) for SimpleString::~SimpleString()
    commandlinearguments.o(.text._ZN20CommandLineArguments21addExcludeGroupFilterEiPKPKcRi) refers to testfilter.o(.text._ZN10TestFilter14invertMatchingEv) for TestFilter::invertMatching()
    commandlinearguments.o(.text._ZN20CommandLineArguments21addExcludeGroupFilterEiPKPKcRi) refers to testfilter.o(.text._ZN10TestFilter3addEPS_) for TestFilter::add(TestFilter*)
    commandlinearguments.o(.text._ZN20CommandLineArguments21addExcludeGroupFilterEiPKPKcRi) refers to commandlinearguments.o(.rodata.str1.1) for .L.str.29
    commandlinearguments.o(.ARM.exidx.text._ZN20CommandLineArguments21addExcludeGroupFilterEiPKPKcRi) refers to commandlinearguments.o(.text._ZN20CommandLineArguments21addExcludeGroupFilterEiPKPKcRi) for [Anonymous Symbol]
    commandlinearguments.o(.text._ZN20CommandLineArguments27addExcludeStrictGroupFilterEiPKPKcRi) refers to memoryleakwarningplugin.o(.text._ZnwjPKci) for operator new(unsigned, const char*, int)
    commandlinearguments.o(.text._ZN20CommandLineArguments27addExcludeStrictGroupFilterEiPKPKcRi) refers to simplestring.o(.text._ZN12SimpleStringC2EPKc) for SimpleString::SimpleString(const char*)
    commandlinearguments.o(.text._ZN20CommandLineArguments27addExcludeStrictGroupFilterEiPKPKcRi) refers to commandlinearguments.o(.text._ZN20CommandLineArguments17getParameterFieldEiPKPKcRiRK12SimpleString) for CommandLineArguments::getParameterField(int, const char*const *, int&, const SimpleString&)
    commandlinearguments.o(.text._ZN20CommandLineArguments27addExcludeStrictGroupFilterEiPKPKcRi) refers to testfilter.o(.text._ZN10TestFilterC2ERK12SimpleString) for TestFilter::TestFilter(const SimpleString&)
    commandlinearguments.o(.text._ZN20CommandLineArguments27addExcludeStrictGroupFilterEiPKPKcRi) refers to simplestring.o(.text._ZN12SimpleStringD2Ev) for SimpleString::~SimpleString()
    commandlinearguments.o(.text._ZN20CommandLineArguments27addExcludeStrictGroupFilterEiPKPKcRi) refers to testfilter.o(.text._ZN10TestFilter14strictMatchingEv) for TestFilter::strictMatching()
    commandlinearguments.o(.text._ZN20CommandLineArguments27addExcludeStrictGroupFilterEiPKPKcRi) refers to testfilter.o(.text._ZN10TestFilter14invertMatchingEv) for TestFilter::invertMatching()
    commandlinearguments.o(.text._ZN20CommandLineArguments27addExcludeStrictGroupFilterEiPKPKcRi) refers to testfilter.o(.text._ZN10TestFilter3addEPS_) for TestFilter::add(TestFilter*)
    commandlinearguments.o(.text._ZN20CommandLineArguments27addExcludeStrictGroupFilterEiPKPKcRi) refers to commandlinearguments.o(.rodata.str1.1) for .L.str.29
    commandlinearguments.o(.ARM.exidx.text._ZN20CommandLineArguments27addExcludeStrictGroupFilterEiPKPKcRi) refers to commandlinearguments.o(.text._ZN20CommandLineArguments27addExcludeStrictGroupFilterEiPKPKcRi) for [Anonymous Symbol]
    commandlinearguments.o(.text._ZN20CommandLineArguments13addNameFilterEiPKPKcRi) refers to memoryleakwarningplugin.o(.text._ZnwjPKci) for operator new(unsigned, const char*, int)
    commandlinearguments.o(.text._ZN20CommandLineArguments13addNameFilterEiPKPKcRi) refers to simplestring.o(.text._ZN12SimpleStringC2EPKc) for SimpleString::SimpleString(const char*)
    commandlinearguments.o(.text._ZN20CommandLineArguments13addNameFilterEiPKPKcRi) refers to commandlinearguments.o(.text._ZN20CommandLineArguments17getParameterFieldEiPKPKcRiRK12SimpleString) for CommandLineArguments::getParameterField(int, const char*const *, int&, const SimpleString&)
    commandlinearguments.o(.text._ZN20CommandLineArguments13addNameFilterEiPKPKcRi) refers to testfilter.o(.text._ZN10TestFilterC2ERK12SimpleString) for TestFilter::TestFilter(const SimpleString&)
    commandlinearguments.o(.text._ZN20CommandLineArguments13addNameFilterEiPKPKcRi) refers to simplestring.o(.text._ZN12SimpleStringD2Ev) for SimpleString::~SimpleString()
    commandlinearguments.o(.text._ZN20CommandLineArguments13addNameFilterEiPKPKcRi) refers to testfilter.o(.text._ZN10TestFilter3addEPS_) for TestFilter::add(TestFilter*)
    commandlinearguments.o(.text._ZN20CommandLineArguments13addNameFilterEiPKPKcRi) refers to commandlinearguments.o(.rodata.str1.1) for .L.str.29
    commandlinearguments.o(.ARM.exidx.text._ZN20CommandLineArguments13addNameFilterEiPKPKcRi) refers to commandlinearguments.o(.text._ZN20CommandLineArguments13addNameFilterEiPKPKcRi) for [Anonymous Symbol]
    commandlinearguments.o(.text._ZN20CommandLineArguments19addStrictNameFilterEiPKPKcRi) refers to memoryleakwarningplugin.o(.text._ZnwjPKci) for operator new(unsigned, const char*, int)
    commandlinearguments.o(.text._ZN20CommandLineArguments19addStrictNameFilterEiPKPKcRi) refers to simplestring.o(.text._ZN12SimpleStringC2EPKc) for SimpleString::SimpleString(const char*)
    commandlinearguments.o(.text._ZN20CommandLineArguments19addStrictNameFilterEiPKPKcRi) refers to commandlinearguments.o(.text._ZN20CommandLineArguments17getParameterFieldEiPKPKcRiRK12SimpleString) for CommandLineArguments::getParameterField(int, const char*const *, int&, const SimpleString&)
    commandlinearguments.o(.text._ZN20CommandLineArguments19addStrictNameFilterEiPKPKcRi) refers to testfilter.o(.text._ZN10TestFilterC2ERK12SimpleString) for TestFilter::TestFilter(const SimpleString&)
    commandlinearguments.o(.text._ZN20CommandLineArguments19addStrictNameFilterEiPKPKcRi) refers to simplestring.o(.text._ZN12SimpleStringD2Ev) for SimpleString::~SimpleString()
    commandlinearguments.o(.text._ZN20CommandLineArguments19addStrictNameFilterEiPKPKcRi) refers to testfilter.o(.text._ZN10TestFilter14strictMatchingEv) for TestFilter::strictMatching()
    commandlinearguments.o(.text._ZN20CommandLineArguments19addStrictNameFilterEiPKPKcRi) refers to testfilter.o(.text._ZN10TestFilter3addEPS_) for TestFilter::add(TestFilter*)
    commandlinearguments.o(.text._ZN20CommandLineArguments19addStrictNameFilterEiPKPKcRi) refers to commandlinearguments.o(.rodata.str1.1) for .L.str.29
    commandlinearguments.o(.ARM.exidx.text._ZN20CommandLineArguments19addStrictNameFilterEiPKPKcRi) refers to commandlinearguments.o(.text._ZN20CommandLineArguments19addStrictNameFilterEiPKPKcRi) for [Anonymous Symbol]
    commandlinearguments.o(.text._ZN20CommandLineArguments20addExcludeNameFilterEiPKPKcRi) refers to memoryleakwarningplugin.o(.text._ZnwjPKci) for operator new(unsigned, const char*, int)
    commandlinearguments.o(.text._ZN20CommandLineArguments20addExcludeNameFilterEiPKPKcRi) refers to simplestring.o(.text._ZN12SimpleStringC2EPKc) for SimpleString::SimpleString(const char*)
    commandlinearguments.o(.text._ZN20CommandLineArguments20addExcludeNameFilterEiPKPKcRi) refers to commandlinearguments.o(.text._ZN20CommandLineArguments17getParameterFieldEiPKPKcRiRK12SimpleString) for CommandLineArguments::getParameterField(int, const char*const *, int&, const SimpleString&)
    commandlinearguments.o(.text._ZN20CommandLineArguments20addExcludeNameFilterEiPKPKcRi) refers to testfilter.o(.text._ZN10TestFilterC2ERK12SimpleString) for TestFilter::TestFilter(const SimpleString&)
    commandlinearguments.o(.text._ZN20CommandLineArguments20addExcludeNameFilterEiPKPKcRi) refers to simplestring.o(.text._ZN12SimpleStringD2Ev) for SimpleString::~SimpleString()
    commandlinearguments.o(.text._ZN20CommandLineArguments20addExcludeNameFilterEiPKPKcRi) refers to testfilter.o(.text._ZN10TestFilter14invertMatchingEv) for TestFilter::invertMatching()
    commandlinearguments.o(.text._ZN20CommandLineArguments20addExcludeNameFilterEiPKPKcRi) refers to testfilter.o(.text._ZN10TestFilter3addEPS_) for TestFilter::add(TestFilter*)
    commandlinearguments.o(.text._ZN20CommandLineArguments20addExcludeNameFilterEiPKPKcRi) refers to commandlinearguments.o(.rodata.str1.1) for .L.str.29
    commandlinearguments.o(.ARM.exidx.text._ZN20CommandLineArguments20addExcludeNameFilterEiPKPKcRi) refers to commandlinearguments.o(.text._ZN20CommandLineArguments20addExcludeNameFilterEiPKPKcRi) for [Anonymous Symbol]
    commandlinearguments.o(.text._ZN20CommandLineArguments26addExcludeStrictNameFilterEiPKPKcRi) refers to memoryleakwarningplugin.o(.text._ZnwjPKci) for operator new(unsigned, const char*, int)
    commandlinearguments.o(.text._ZN20CommandLineArguments26addExcludeStrictNameFilterEiPKPKcRi) refers to simplestring.o(.text._ZN12SimpleStringC2EPKc) for SimpleString::SimpleString(const char*)
    commandlinearguments.o(.text._ZN20CommandLineArguments26addExcludeStrictNameFilterEiPKPKcRi) refers to commandlinearguments.o(.text._ZN20CommandLineArguments17getParameterFieldEiPKPKcRiRK12SimpleString) for CommandLineArguments::getParameterField(int, const char*const *, int&, const SimpleString&)
    commandlinearguments.o(.text._ZN20CommandLineArguments26addExcludeStrictNameFilterEiPKPKcRi) refers to testfilter.o(.text._ZN10TestFilterC2ERK12SimpleString) for TestFilter::TestFilter(const SimpleString&)
    commandlinearguments.o(.text._ZN20CommandLineArguments26addExcludeStrictNameFilterEiPKPKcRi) refers to simplestring.o(.text._ZN12SimpleStringD2Ev) for SimpleString::~SimpleString()
    commandlinearguments.o(.text._ZN20CommandLineArguments26addExcludeStrictNameFilterEiPKPKcRi) refers to testfilter.o(.text._ZN10TestFilter14invertMatchingEv) for TestFilter::invertMatching()
    commandlinearguments.o(.text._ZN20CommandLineArguments26addExcludeStrictNameFilterEiPKPKcRi) refers to testfilter.o(.text._ZN10TestFilter14strictMatchingEv) for TestFilter::strictMatching()
    commandlinearguments.o(.text._ZN20CommandLineArguments26addExcludeStrictNameFilterEiPKPKcRi) refers to testfilter.o(.text._ZN10TestFilter3addEPS_) for TestFilter::add(TestFilter*)
    commandlinearguments.o(.text._ZN20CommandLineArguments26addExcludeStrictNameFilterEiPKPKcRi) refers to commandlinearguments.o(.rodata.str1.1) for .L.str.29
    commandlinearguments.o(.ARM.exidx.text._ZN20CommandLineArguments26addExcludeStrictNameFilterEiPKPKcRi) refers to commandlinearguments.o(.text._ZN20CommandLineArguments26addExcludeStrictNameFilterEiPKPKcRi) for [Anonymous Symbol]
    commandlinearguments.o(.text._ZN20CommandLineArguments10setShuffleEiPKPKcRi) refers to simplestring.o(.text._ZN12SimpleStringC2EPKc) for SimpleString::SimpleString(const char*)
    commandlinearguments.o(.text._ZN20CommandLineArguments10setShuffleEiPKPKcRi) refers to simplestring.o(.text._ZNK12SimpleString4sizeEv) for SimpleString::size() const
    commandlinearguments.o(.text._ZN20CommandLineArguments10setShuffleEiPKPKcRi) refers to simplestring.o(.text._ZN12SimpleString4AtoUEPKc) for SimpleString::AtoU(const char*)
    commandlinearguments.o(.text._ZN20CommandLineArguments10setShuffleEiPKPKcRi) refers to simplestring.o(.text._ZN12SimpleStringD2Ev) for SimpleString::~SimpleString()
    commandlinearguments.o(.text._ZN20CommandLineArguments10setShuffleEiPKPKcRi) refers to utestplatform.o(.data.GetPlatformSpecificTimeInMillis) for GetPlatformSpecificTimeInMillis
    commandlinearguments.o(.ARM.exidx.text._ZN20CommandLineArguments10setShuffleEiPKPKcRi) refers to commandlinearguments.o(.text._ZN20CommandLineArguments10setShuffleEiPKPKcRi) for [Anonymous Symbol]
    commandlinearguments.o(.text._ZN20CommandLineArguments32addTestToRunBasedOnVerboseOutputEiPKPKcRiS1_) refers to simplestring.o(.text._ZN12SimpleStringC2EPKc) for SimpleString::SimpleString(const char*)
    commandlinearguments.o(.text._ZN20CommandLineArguments32addTestToRunBasedOnVerboseOutputEiPKPKcRiS1_) refers to commandlinearguments.o(.text._ZN20CommandLineArguments17getParameterFieldEiPKPKcRiRK12SimpleString) for CommandLineArguments::getParameterField(int, const char*const *, int&, const SimpleString&)
    commandlinearguments.o(.text._ZN20CommandLineArguments32addTestToRunBasedOnVerboseOutputEiPKPKcRiS1_) refers to simplestring.o(.text._ZNK12SimpleString17subStringFromTillEcc) for SimpleString::subStringFromTill(char, char) const
    commandlinearguments.o(.text._ZN20CommandLineArguments32addTestToRunBasedOnVerboseOutputEiPKPKcRiS1_) refers to simplestring.o(.text._ZNK12SimpleString9subStringEj) for SimpleString::subString(unsigned) const
    commandlinearguments.o(.text._ZN20CommandLineArguments32addTestToRunBasedOnVerboseOutputEiPKPKcRiS1_) refers to simplestring.o(.text._ZN12SimpleStringaSERKS_) for SimpleString::operator =(const SimpleString&)
    commandlinearguments.o(.text._ZN20CommandLineArguments32addTestToRunBasedOnVerboseOutputEiPKPKcRiS1_) refers to memoryleakwarningplugin.o(.text._ZnwjPKci) for operator new(unsigned, const char*, int)
    commandlinearguments.o(.text._ZN20CommandLineArguments32addTestToRunBasedOnVerboseOutputEiPKPKcRiS1_) refers to testfilter.o(.text._ZN10TestFilterC2ERK12SimpleString) for TestFilter::TestFilter(const SimpleString&)
    commandlinearguments.o(.text._ZN20CommandLineArguments32addTestToRunBasedOnVerboseOutputEiPKPKcRiS1_) refers to simplestring.o(.text._ZNK12SimpleString2atEj) for SimpleString::at(unsigned) const
    commandlinearguments.o(.text._ZN20CommandLineArguments32addTestToRunBasedOnVerboseOutputEiPKPKcRiS1_) refers to testfilter.o(.text._ZN10TestFilter14strictMatchingEv) for TestFilter::strictMatching()
    commandlinearguments.o(.text._ZN20CommandLineArguments32addTestToRunBasedOnVerboseOutputEiPKPKcRiS1_) refers to testfilter.o(.text._ZN10TestFilter3addEPS_) for TestFilter::add(TestFilter*)
    commandlinearguments.o(.text._ZN20CommandLineArguments32addTestToRunBasedOnVerboseOutputEiPKPKcRiS1_) refers to simplestring.o(.text._ZN12SimpleStringD2Ev) for SimpleString::~SimpleString()
    commandlinearguments.o(.text._ZN20CommandLineArguments32addTestToRunBasedOnVerboseOutputEiPKPKcRiS1_) refers to commandlinearguments.o(.rodata.str1.1) for .L.str.29
    commandlinearguments.o(.ARM.exidx.text._ZN20CommandLineArguments32addTestToRunBasedOnVerboseOutputEiPKPKcRiS1_) refers to commandlinearguments.o(.text._ZN20CommandLineArguments32addTestToRunBasedOnVerboseOutputEiPKPKcRiS1_) for [Anonymous Symbol]
    commandlinearguments.o(.text._ZN20CommandLineArguments13setOutputTypeEiPKPKcRi) refers to simplestring.o(.text._ZN12SimpleStringC2EPKc) for SimpleString::SimpleString(const char*)
    commandlinearguments.o(.text._ZN20CommandLineArguments13setOutputTypeEiPKPKcRi) refers to commandlinearguments.o(.text._ZN20CommandLineArguments17getParameterFieldEiPKPKcRiRK12SimpleString) for CommandLineArguments::getParameterField(int, const char*const *, int&, const SimpleString&)
    commandlinearguments.o(.text._ZN20CommandLineArguments13setOutputTypeEiPKPKcRi) refers to simplestring.o(.text._ZN12SimpleStringD2Ev) for SimpleString::~SimpleString()
    commandlinearguments.o(.text._ZN20CommandLineArguments13setOutputTypeEiPKPKcRi) refers to simplestring.o(.text._ZNK12SimpleString4sizeEv) for SimpleString::size() const
    commandlinearguments.o(.text._ZN20CommandLineArguments13setOutputTypeEiPKPKcRi) refers to simplestring.o(.text._ZeqRK12SimpleStringS1_) for operator ==(const SimpleString&, const SimpleString&)
    commandlinearguments.o(.text._ZN20CommandLineArguments13setOutputTypeEiPKPKcRi) refers to commandlinearguments.o(.rodata.str1.1) for .L.str.25
    commandlinearguments.o(.ARM.exidx.text._ZN20CommandLineArguments13setOutputTypeEiPKPKcRi) refers to commandlinearguments.o(.text._ZN20CommandLineArguments13setOutputTypeEiPKPKcRi) for [Anonymous Symbol]
    commandlinearguments.o(.text._ZN20CommandLineArguments14setPackageNameEiPKPKcRi) refers to simplestring.o(.text._ZN12SimpleStringC2EPKc) for SimpleString::SimpleString(const char*)
    commandlinearguments.o(.text._ZN20CommandLineArguments14setPackageNameEiPKPKcRi) refers to commandlinearguments.o(.text._ZN20CommandLineArguments17getParameterFieldEiPKPKcRiRK12SimpleString) for CommandLineArguments::getParameterField(int, const char*const *, int&, const SimpleString&)
    commandlinearguments.o(.text._ZN20CommandLineArguments14setPackageNameEiPKPKcRi) refers to simplestring.o(.text._ZN12SimpleStringD2Ev) for SimpleString::~SimpleString()
    commandlinearguments.o(.text._ZN20CommandLineArguments14setPackageNameEiPKPKcRi) refers to simplestring.o(.text._ZNK12SimpleString4sizeEv) for SimpleString::size() const
    commandlinearguments.o(.text._ZN20CommandLineArguments14setPackageNameEiPKPKcRi) refers to simplestring.o(.text._ZN12SimpleStringaSERKS_) for SimpleString::operator =(const SimpleString&)
    commandlinearguments.o(.text._ZN20CommandLineArguments14setPackageNameEiPKPKcRi) refers to commandlinearguments.o(.rodata.str1.1) for .L.str.26
    commandlinearguments.o(.ARM.exidx.text._ZN20CommandLineArguments14setPackageNameEiPKPKcRi) refers to commandlinearguments.o(.text._ZN20CommandLineArguments14setPackageNameEiPKPKcRi) for [Anonymous Symbol]
    commandlinearguments.o(.text._ZNK20CommandLineArguments5usageEv) refers to commandlinearguments.o(.rodata.str1.1) for .L.str.27
    commandlinearguments.o(.ARM.exidx.text._ZNK20CommandLineArguments5usageEv) refers to commandlinearguments.o(.text._ZNK20CommandLineArguments5usageEv) for [Anonymous Symbol]
    commandlinearguments.o(.text._ZNK20CommandLineArguments4helpEv) refers to commandlinearguments.o(.rodata.str1.1) for .L.str.28
    commandlinearguments.o(.ARM.exidx.text._ZNK20CommandLineArguments4helpEv) refers to commandlinearguments.o(.text._ZNK20CommandLineArguments4helpEv) for [Anonymous Symbol]
    commandlinearguments.o(.ARM.exidx.text._ZNK20CommandLineArguments8needHelpEv) refers to commandlinearguments.o(.text._ZNK20CommandLineArguments8needHelpEv) for [Anonymous Symbol]
    commandlinearguments.o(.ARM.exidx.text._ZNK20CommandLineArguments9isVerboseEv) refers to commandlinearguments.o(.text._ZNK20CommandLineArguments9isVerboseEv) for [Anonymous Symbol]
    commandlinearguments.o(.ARM.exidx.text._ZNK20CommandLineArguments13isVeryVerboseEv) refers to commandlinearguments.o(.text._ZNK20CommandLineArguments13isVeryVerboseEv) for [Anonymous Symbol]
    commandlinearguments.o(.ARM.exidx.text._ZNK20CommandLineArguments7isColorEv) refers to commandlinearguments.o(.text._ZNK20CommandLineArguments7isColorEv) for [Anonymous Symbol]
    commandlinearguments.o(.ARM.exidx.text._ZNK20CommandLineArguments23isListingTestGroupNamesEv) refers to commandlinearguments.o(.text._ZNK20CommandLineArguments23isListingTestGroupNamesEv) for [Anonymous Symbol]
    commandlinearguments.o(.ARM.exidx.text._ZNK20CommandLineArguments30isListingTestGroupAndCaseNamesEv) refers to commandlinearguments.o(.text._ZNK20CommandLineArguments30isListingTestGroupAndCaseNamesEv) for [Anonymous Symbol]
    commandlinearguments.o(.ARM.exidx.text._ZNK20CommandLineArguments22isListingTestLocationsEv) refers to commandlinearguments.o(.text._ZNK20CommandLineArguments22isListingTestLocationsEv) for [Anonymous Symbol]
    commandlinearguments.o(.ARM.exidx.text._ZNK20CommandLineArguments12isRunIgnoredEv) refers to commandlinearguments.o(.text._ZNK20CommandLineArguments12isRunIgnoredEv) for [Anonymous Symbol]
    commandlinearguments.o(.ARM.exidx.text._ZNK20CommandLineArguments25runTestsInSeperateProcessEv) refers to commandlinearguments.o(.text._ZNK20CommandLineArguments25runTestsInSeperateProcessEv) for [Anonymous Symbol]
    commandlinearguments.o(.ARM.exidx.text._ZNK20CommandLineArguments14getRepeatCountEv) refers to commandlinearguments.o(.text._ZNK20CommandLineArguments14getRepeatCountEv) for [Anonymous Symbol]
    commandlinearguments.o(.ARM.exidx.text._ZNK20CommandLineArguments11isReversingEv) refers to commandlinearguments.o(.text._ZNK20CommandLineArguments11isReversingEv) for [Anonymous Symbol]
    commandlinearguments.o(.ARM.exidx.text._ZNK20CommandLineArguments16isCrashingOnFailEv) refers to commandlinearguments.o(.text._ZNK20CommandLineArguments16isCrashingOnFailEv) for [Anonymous Symbol]
    commandlinearguments.o(.ARM.exidx.text._ZNK20CommandLineArguments11isShufflingEv) refers to commandlinearguments.o(.text._ZNK20CommandLineArguments11isShufflingEv) for [Anonymous Symbol]
    commandlinearguments.o(.ARM.exidx.text._ZNK20CommandLineArguments14getShuffleSeedEv) refers to commandlinearguments.o(.text._ZNK20CommandLineArguments14getShuffleSeedEv) for [Anonymous Symbol]
    commandlinearguments.o(.ARM.exidx.text._ZNK20CommandLineArguments15getGroupFiltersEv) refers to commandlinearguments.o(.text._ZNK20CommandLineArguments15getGroupFiltersEv) for [Anonymous Symbol]
    commandlinearguments.o(.ARM.exidx.text._ZNK20CommandLineArguments14getNameFiltersEv) refers to commandlinearguments.o(.text._ZNK20CommandLineArguments14getNameFiltersEv) for [Anonymous Symbol]
    commandlinearguments.o(.text._ZN20CommandLineArguments17getParameterFieldEiPKPKcRiRK12SimpleString) refers to simplestring.o(.text._ZNK12SimpleString4sizeEv) for SimpleString::size() const
    commandlinearguments.o(.text._ZN20CommandLineArguments17getParameterFieldEiPKPKcRiRK12SimpleString) refers to simplestring.o(.text._ZN12SimpleStringC2EPKc) for SimpleString::SimpleString(const char*)
    commandlinearguments.o(.text._ZN20CommandLineArguments17getParameterFieldEiPKPKcRiRK12SimpleString) refers to simplestring.o(.text._ZN12SimpleStringD2Ev) for SimpleString::~SimpleString()
    commandlinearguments.o(.text._ZN20CommandLineArguments17getParameterFieldEiPKPKcRiRK12SimpleString) refers to commandlinearguments.o(.rodata.str1.1) for .L.str
    commandlinearguments.o(.ARM.exidx.text._ZN20CommandLineArguments17getParameterFieldEiPKPKcRiRK12SimpleString) refers to commandlinearguments.o(.text._ZN20CommandLineArguments17getParameterFieldEiPKPKcRiRK12SimpleString) for [Anonymous Symbol]
    commandlinearguments.o(.ARM.exidx.text._ZNK20CommandLineArguments15isEclipseOutputEv) refers to commandlinearguments.o(.text._ZNK20CommandLineArguments15isEclipseOutputEv) for [Anonymous Symbol]
    commandlinearguments.o(.ARM.exidx.text._ZNK20CommandLineArguments13isJUnitOutputEv) refers to commandlinearguments.o(.text._ZNK20CommandLineArguments13isJUnitOutputEv) for [Anonymous Symbol]
    commandlinearguments.o(.ARM.exidx.text._ZNK20CommandLineArguments16isTeamCityOutputEv) refers to commandlinearguments.o(.text._ZNK20CommandLineArguments16isTeamCityOutputEv) for [Anonymous Symbol]
    commandlinearguments.o(.ARM.exidx.text._ZNK20CommandLineArguments14getPackageNameEv) refers to commandlinearguments.o(.text._ZNK20CommandLineArguments14getPackageNameEv) for [Anonymous Symbol]
    commandlinearguments.o(.rodata._ZTV20CommandLineArguments) refers to commandlinearguments.o(.rodata._ZTI20CommandLineArguments) for typeinfo for CommandLineArguments
    commandlinearguments.o(.rodata._ZTV20CommandLineArguments) refers to commandlinearguments.o(.text._ZN20CommandLineArgumentsD2Ev) for CommandLineArguments::~CommandLineArguments__sub_object()
    commandlinearguments.o(.rodata._ZTV20CommandLineArguments) refers to commandlinearguments.o(.text._ZN20CommandLineArgumentsD0Ev) for CommandLineArguments::~CommandLineArguments__deallocating()
    commandlinearguments.o(.rodata._ZTI20CommandLineArguments) refers to private_typeinfo.cpp.o(.rodata._ZTVN10__cxxabiv117__class_type_infoE) for vtable for __cxxabiv1::__class_type_info
    commandlinearguments.o(.rodata._ZTI20CommandLineArguments) refers to commandlinearguments.o(.rodata._ZTS20CommandLineArguments) for typeinfo name for CommandLineArguments
    junittestoutput.o(.text._ZN15JUnitTestOutputC2Ev) refers to testoutput.o(.text._ZN10TestOutputC2Ev) for TestOutput::TestOutput__sub_object()
    junittestoutput.o(.text._ZN15JUnitTestOutputC2Ev) refers to memoryleakwarningplugin.o(.text._ZnwjPKci) for operator new(unsigned, const char*, int)
    junittestoutput.o(.text._ZN15JUnitTestOutputC2Ev) refers to junittestoutput.o(.text._ZN19JUnitTestOutputImplC2Ev) for JUnitTestOutputImpl::JUnitTestOutputImpl__sub_object()
    junittestoutput.o(.text._ZN15JUnitTestOutputC2Ev) refers to junittestoutput.o(.rodata._ZTV15JUnitTestOutput) for vtable for JUnitTestOutput
    junittestoutput.o(.text._ZN15JUnitTestOutputC2Ev) refers to junittestoutput.o(.rodata.str1.1) for .L.str
    junittestoutput.o(.ARM.exidx.text._ZN15JUnitTestOutputC2Ev) refers to junittestoutput.o(.text._ZN15JUnitTestOutputC2Ev) for [Anonymous Symbol]
    junittestoutput.o(.text._ZN15JUnitTestOutputD2Ev) refers to junittestoutput.o(.text._ZN15JUnitTestOutput20resetTestGroupResultEv) for JUnitTestOutput::resetTestGroupResult()
    junittestoutput.o(.text._ZN15JUnitTestOutputD2Ev) refers to junittestoutput.o(.text._ZN19JUnitTestOutputImplD2Ev) for JUnitTestOutputImpl::~JUnitTestOutputImpl__sub_object()
    junittestoutput.o(.text._ZN15JUnitTestOutputD2Ev) refers to memoryleakwarningplugin.o(.text._ZdlPv) for operator delete (void*)
    junittestoutput.o(.text._ZN15JUnitTestOutputD2Ev) refers to testoutput.o(.text._ZN10TestOutputD2Ev) for TestOutput::~TestOutput__sub_object()
    junittestoutput.o(.text._ZN15JUnitTestOutputD2Ev) refers to junittestoutput.o(.rodata._ZTV15JUnitTestOutput) for vtable for JUnitTestOutput
    junittestoutput.o(.ARM.exidx.text._ZN15JUnitTestOutputD2Ev) refers to junittestoutput.o(.text._ZN15JUnitTestOutputD2Ev) for [Anonymous Symbol]
    junittestoutput.o(.text._ZN15JUnitTestOutput20resetTestGroupResultEv) refers to simplestring.o(.text._ZN12SimpleStringC2EPKc) for SimpleString::SimpleString(const char*)
    junittestoutput.o(.text._ZN15JUnitTestOutput20resetTestGroupResultEv) refers to simplestring.o(.text._ZN12SimpleStringaSERKS_) for SimpleString::operator =(const SimpleString&)
    junittestoutput.o(.text._ZN15JUnitTestOutput20resetTestGroupResultEv) refers to simplestring.o(.text._ZN12SimpleStringD2Ev) for SimpleString::~SimpleString()
    junittestoutput.o(.text._ZN15JUnitTestOutput20resetTestGroupResultEv) refers to junittestoutput.o(.text._ZN23JUnitTestCaseResultNodeD2Ev) for JUnitTestCaseResultNode::~JUnitTestCaseResultNode__sub_object()
    junittestoutput.o(.text._ZN15JUnitTestOutput20resetTestGroupResultEv) refers to memoryleakwarningplugin.o(.text._ZdlPv) for operator delete (void*)
    junittestoutput.o(.text._ZN15JUnitTestOutput20resetTestGroupResultEv) refers to junittestoutput.o(.rodata.str1.1) for .L.str.1
    junittestoutput.o(.ARM.exidx.text._ZN15JUnitTestOutput20resetTestGroupResultEv) refers to junittestoutput.o(.text._ZN15JUnitTestOutput20resetTestGroupResultEv) for [Anonymous Symbol]
    junittestoutput.o(.text._ZN15JUnitTestOutputD0Ev) refers to junittestoutput.o(.text._ZN15JUnitTestOutputD2Ev) for JUnitTestOutput::~JUnitTestOutput__sub_object()
    junittestoutput.o(.text._ZN15JUnitTestOutputD0Ev) refers to memoryleakwarningplugin.o(.text._ZdlPv) for operator delete (void*)
    junittestoutput.o(.ARM.exidx.text._ZN15JUnitTestOutputD0Ev) refers to junittestoutput.o(.text._ZN15JUnitTestOutputD0Ev) for [Anonymous Symbol]
    junittestoutput.o(.ARM.exidx.text._ZN15JUnitTestOutput17printTestsStartedEv) refers to junittestoutput.o(.text._ZN15JUnitTestOutput17printTestsStartedEv) for [Anonymous Symbol]
    junittestoutput.o(.ARM.exidx.text._ZN15JUnitTestOutput24printCurrentGroupStartedERK10UtestShell) refers to junittestoutput.o(.text._ZN15JUnitTestOutput24printCurrentGroupStartedERK10UtestShell) for [Anonymous Symbol]
    junittestoutput.o(.text._ZN15JUnitTestOutput21printCurrentTestEndedERK10TestResult) refers to testresult.o(.text._ZNK10TestResult32getCurrentTestTotalExecutionTimeEv) for TestResult::getCurrentTestTotalExecutionTime() const
    junittestoutput.o(.ARM.exidx.text._ZN15JUnitTestOutput21printCurrentTestEndedERK10TestResult) refers to junittestoutput.o(.text._ZN15JUnitTestOutput21printCurrentTestEndedERK10TestResult) for [Anonymous Symbol]
    junittestoutput.o(.ARM.exidx.text._ZN15JUnitTestOutput15printTestsEndedERK10TestResult) refers to junittestoutput.o(.text._ZN15JUnitTestOutput15printTestsEndedERK10TestResult) for [Anonymous Symbol]
    junittestoutput.o(.text._ZN15JUnitTestOutput22printCurrentGroupEndedERK10TestResult) refers to testresult.o(.text._ZNK10TestResult33getCurrentGroupTotalExecutionTimeEv) for TestResult::getCurrentGroupTotalExecutionTime() const
    junittestoutput.o(.text._ZN15JUnitTestOutput22printCurrentGroupEndedERK10TestResult) refers to junittestoutput.o(.text._ZN15JUnitTestOutput20resetTestGroupResultEv) for JUnitTestOutput::resetTestGroupResult()
    junittestoutput.o(.ARM.exidx.text._ZN15JUnitTestOutput22printCurrentGroupEndedERK10TestResult) refers to junittestoutput.o(.text._ZN15JUnitTestOutput22printCurrentGroupEndedERK10TestResult) for [Anonymous Symbol]
    junittestoutput.o(.text._ZN15JUnitTestOutput23printCurrentTestStartedERK10UtestShell) refers to utest.o(.text._ZNK10UtestShell8getGroupEv) for UtestShell::getGroup() const
    junittestoutput.o(.text._ZN15JUnitTestOutput23printCurrentTestStartedERK10UtestShell) refers to simplestring.o(.text._ZN12SimpleStringaSERKS_) for SimpleString::operator =(const SimpleString&)
    junittestoutput.o(.text._ZN15JUnitTestOutput23printCurrentTestStartedERK10UtestShell) refers to simplestring.o(.text._ZN12SimpleStringD2Ev) for SimpleString::~SimpleString()
    junittestoutput.o(.text._ZN15JUnitTestOutput23printCurrentTestStartedERK10UtestShell) refers to memoryleakwarningplugin.o(.text._ZnwjPKci) for operator new(unsigned, const char*, int)
    junittestoutput.o(.text._ZN15JUnitTestOutput23printCurrentTestStartedERK10UtestShell) refers to junittestoutput.o(.text._ZN23JUnitTestCaseResultNodeC2Ev) for JUnitTestCaseResultNode::JUnitTestCaseResultNode__sub_object()
    junittestoutput.o(.text._ZN15JUnitTestOutput23printCurrentTestStartedERK10UtestShell) refers to utest.o(.text._ZNK10UtestShell7getNameEv) for UtestShell::getName() const
    junittestoutput.o(.text._ZN15JUnitTestOutput23printCurrentTestStartedERK10UtestShell) refers to utest.o(.text._ZNK10UtestShell7getFileEv) for UtestShell::getFile() const
    junittestoutput.o(.text._ZN15JUnitTestOutput23printCurrentTestStartedERK10UtestShell) refers to utest.o(.text._ZNK10UtestShell13getLineNumberEv) for UtestShell::getLineNumber() const
    junittestoutput.o(.text._ZN15JUnitTestOutput23printCurrentTestStartedERK10UtestShell) refers to utestplatform.o(.data.GetPlatformSpecificTimeInMillis) for GetPlatformSpecificTimeInMillis
    junittestoutput.o(.text._ZN15JUnitTestOutput23printCurrentTestStartedERK10UtestShell) refers to junittestoutput.o(.rodata.str1.1) for .L.str
    junittestoutput.o(.ARM.exidx.text._ZN15JUnitTestOutput23printCurrentTestStartedERK10UtestShell) refers to junittestoutput.o(.text._ZN15JUnitTestOutput23printCurrentTestStartedERK10UtestShell) for [Anonymous Symbol]
    junittestoutput.o(.text._ZN15JUnitTestOutput14createFileNameERK12SimpleString) refers to simplestring.o(.text._ZN12SimpleStringC2EPKc) for SimpleString::SimpleString(const char*)
    junittestoutput.o(.text._ZN15JUnitTestOutput14createFileNameERK12SimpleString) refers to simplestring.o(.text._ZNK12SimpleString7isEmptyEv) for SimpleString::isEmpty() const
    junittestoutput.o(.text._ZN15JUnitTestOutput14createFileNameERK12SimpleString) refers to simplestring.o(.text._ZN12SimpleStringpLERKS_) for SimpleString::operator +=(const SimpleString&)
    junittestoutput.o(.text._ZN15JUnitTestOutput14createFileNameERK12SimpleString) refers to simplestring.o(.text._ZN12SimpleStringpLEPKc) for SimpleString::operator +=(const char*)
    junittestoutput.o(.text._ZN15JUnitTestOutput14createFileNameERK12SimpleString) refers to simplestring.o(.text._ZNK12SimpleStringplERKS_) for SimpleString::operator +(const SimpleString&) const
    junittestoutput.o(.text._ZN15JUnitTestOutput14createFileNameERK12SimpleString) refers to simplestring.o(.text._ZN12SimpleStringD2Ev) for SimpleString::~SimpleString()
    junittestoutput.o(.ARM.exidx.text._ZN15JUnitTestOutput14createFileNameERK12SimpleString) refers to junittestoutput.o(.text._ZN15JUnitTestOutput14createFileNameERK12SimpleString) for [Anonymous Symbol]
    junittestoutput.o(.text._ZN15JUnitTestOutput14encodeFileNameERK12SimpleString) refers to simplestring.o(.text._ZN12SimpleStringC2ERKS_) for SimpleString::SimpleString(const SimpleString&)
    junittestoutput.o(.text._ZN15JUnitTestOutput14encodeFileNameERK12SimpleString) refers to simplestring.o(.text._ZN12SimpleString7replaceEcc) for SimpleString::replace(char, char)
    junittestoutput.o(.text._ZN15JUnitTestOutput14encodeFileNameERK12SimpleString) refers to junittestoutput.o(.rodata.str1.1) for .L.str.5
    junittestoutput.o(.ARM.exidx.text._ZN15JUnitTestOutput14encodeFileNameERK12SimpleString) refers to junittestoutput.o(.text._ZN15JUnitTestOutput14encodeFileNameERK12SimpleString) for [Anonymous Symbol]
    junittestoutput.o(.text._ZN15JUnitTestOutput14setPackageNameERK12SimpleString) refers to simplestring.o(.text._ZN12SimpleStringaSERKS_) for SimpleString::operator =(const SimpleString&)
    junittestoutput.o(.ARM.exidx.text._ZN15JUnitTestOutput14setPackageNameERK12SimpleString) refers to junittestoutput.o(.text._ZN15JUnitTestOutput14setPackageNameERK12SimpleString) for [Anonymous Symbol]
    junittestoutput.o(.text._ZN15JUnitTestOutput14writeXmlHeaderEv) refers to simplestring.o(.text._ZN12SimpleStringC2EPKc) for SimpleString::SimpleString(const char*)
    junittestoutput.o(.text._ZN15JUnitTestOutput14writeXmlHeaderEv) refers to simplestring.o(.text._ZN12SimpleStringD2Ev) for SimpleString::~SimpleString()
    junittestoutput.o(.ARM.exidx.text._ZN15JUnitTestOutput14writeXmlHeaderEv) refers to junittestoutput.o(.text._ZN15JUnitTestOutput14writeXmlHeaderEv) for [Anonymous Symbol]
    junittestoutput.o(.text._ZN15JUnitTestOutput21writeTestSuiteSummaryEv) refers to simplestring.o(.text._ZNK12SimpleString12asCharStringEv) for SimpleString::asCharString() const
    junittestoutput.o(.text._ZN15JUnitTestOutput21writeTestSuiteSummaryEv) refers to simplestring.o(.text._Z16StringFromFormatPKcz) for StringFromFormat(const char*, ...)
    junittestoutput.o(.text._ZN15JUnitTestOutput21writeTestSuiteSummaryEv) refers to simplestring.o(.text._ZN12SimpleStringC2EPKc) for SimpleString::SimpleString(const char*)
    junittestoutput.o(.text._ZN15JUnitTestOutput21writeTestSuiteSummaryEv) refers to simplestring.o(.text._ZN12SimpleStringD2Ev) for SimpleString::~SimpleString()
    junittestoutput.o(.text._ZN15JUnitTestOutput21writeTestSuiteSummaryEv) refers to utestplatform.o(.data.GetPlatformSpecificTimeString) for GetPlatformSpecificTimeString
    junittestoutput.o(.text._ZN15JUnitTestOutput21writeTestSuiteSummaryEv) refers to junittestoutput.o(.rodata.str1.1) for .L.str.7
    junittestoutput.o(.ARM.exidx.text._ZN15JUnitTestOutput21writeTestSuiteSummaryEv) refers to junittestoutput.o(.text._ZN15JUnitTestOutput21writeTestSuiteSummaryEv) for [Anonymous Symbol]
    junittestoutput.o(.text._ZN15JUnitTestOutput15writePropertiesEv) refers to simplestring.o(.text._ZN12SimpleStringC2EPKc) for SimpleString::SimpleString(const char*)
    junittestoutput.o(.text._ZN15JUnitTestOutput15writePropertiesEv) refers to simplestring.o(.text._ZN12SimpleStringD2Ev) for SimpleString::~SimpleString()
    junittestoutput.o(.ARM.exidx.text._ZN15JUnitTestOutput15writePropertiesEv) refers to junittestoutput.o(.text._ZN15JUnitTestOutput15writePropertiesEv) for [Anonymous Symbol]
    junittestoutput.o(.text._ZN15JUnitTestOutput13encodeXmlTextERK12SimpleString) refers to simplestring.o(.text._ZNK12SimpleString12asCharStringEv) for SimpleString::asCharString() const
    junittestoutput.o(.text._ZN15JUnitTestOutput13encodeXmlTextERK12SimpleString) refers to simplestring.o(.text._ZN12SimpleStringC2EPKc) for SimpleString::SimpleString(const char*)
    junittestoutput.o(.text._ZN15JUnitTestOutput13encodeXmlTextERK12SimpleString) refers to simplestring.o(.text._ZN12SimpleString7replaceEPKcS1_) for SimpleString::replace(const char*, const char*)
    junittestoutput.o(.ARM.exidx.text._ZN15JUnitTestOutput13encodeXmlTextERK12SimpleString) refers to junittestoutput.o(.text._ZN15JUnitTestOutput13encodeXmlTextERK12SimpleString) for [Anonymous Symbol]
    junittestoutput.o(.text._ZN15JUnitTestOutput14writeTestCasesEv) refers to simplestring.o(.text._ZNK12SimpleString7isEmptyEv) for SimpleString::isEmpty() const
    junittestoutput.o(.text._ZN15JUnitTestOutput14writeTestCasesEv) refers to simplestring.o(.text._Z16StringFromFormatPKcz) for StringFromFormat(const char*, ...)
    junittestoutput.o(.text._ZN15JUnitTestOutput14writeTestCasesEv) refers to simplestring.o(.text._ZN12SimpleStringC2EPKc) for SimpleString::SimpleString(const char*)
    junittestoutput.o(.text._ZN15JUnitTestOutput14writeTestCasesEv) refers to simplestring.o(.text._ZN12SimpleStringD2Ev) for SimpleString::~SimpleString()
    junittestoutput.o(.text._ZN15JUnitTestOutput14writeTestCasesEv) refers to simplestring.o(.text._ZNK12SimpleString12asCharStringEv) for SimpleString::asCharString() const
    junittestoutput.o(.text._ZN15JUnitTestOutput14writeTestCasesEv) refers to junittestoutput.o(.rodata.str1.1) for .L.str.1
    junittestoutput.o(.ARM.exidx.text._ZN15JUnitTestOutput14writeTestCasesEv) refers to junittestoutput.o(.text._ZN15JUnitTestOutput14writeTestCasesEv) for [Anonymous Symbol]
    junittestoutput.o(.text._ZN15JUnitTestOutput12writeFailureEP23JUnitTestCaseResultNode) refers to simplestring.o(.text._Z16StringFromFormatPKcz) for StringFromFormat(const char*, ...)
    junittestoutput.o(.text._ZN15JUnitTestOutput12writeFailureEP23JUnitTestCaseResultNode) refers to simplestring.o(.text._ZN12SimpleStringC2EPKc) for SimpleString::SimpleString(const char*)
    junittestoutput.o(.text._ZN15JUnitTestOutput12writeFailureEP23JUnitTestCaseResultNode) refers to simplestring.o(.text._ZNK12SimpleString12asCharStringEv) for SimpleString::asCharString() const
    junittestoutput.o(.text._ZN15JUnitTestOutput12writeFailureEP23JUnitTestCaseResultNode) refers to simplestring.o(.text._ZN12SimpleStringD2Ev) for SimpleString::~SimpleString()
    junittestoutput.o(.ARM.exidx.text._ZN15JUnitTestOutput12writeFailureEP23JUnitTestCaseResultNode) refers to junittestoutput.o(.text._ZN15JUnitTestOutput12writeFailureEP23JUnitTestCaseResultNode) for [Anonymous Symbol]
    junittestoutput.o(.text._ZN15JUnitTestOutput15writeFileEndingEv) refers to simplestring.o(.text._ZN12SimpleStringC2EPKc) for SimpleString::SimpleString(const char*)
    junittestoutput.o(.text._ZN15JUnitTestOutput15writeFileEndingEv) refers to simplestring.o(.text._ZN12SimpleStringD2Ev) for SimpleString::~SimpleString()
    junittestoutput.o(.ARM.exidx.text._ZN15JUnitTestOutput15writeFileEndingEv) refers to junittestoutput.o(.text._ZN15JUnitTestOutput15writeFileEndingEv) for [Anonymous Symbol]
    junittestoutput.o(.text._ZN15JUnitTestOutput20writeTestGroupToFileEv) refers to simplestring.o(.text._ZN12SimpleStringD2Ev) for SimpleString::~SimpleString()
    junittestoutput.o(.ARM.exidx.text._ZN15JUnitTestOutput20writeTestGroupToFileEv) refers to junittestoutput.o(.text._ZN15JUnitTestOutput20writeTestGroupToFileEv) for [Anonymous Symbol]
    junittestoutput.o(.ARM.exidx.text._ZN15JUnitTestOutput11printBufferEPKc) refers to junittestoutput.o(.text._ZN15JUnitTestOutput11printBufferEPKc) for [Anonymous Symbol]
    junittestoutput.o(.text._ZN15JUnitTestOutput5printEPKc) refers to simplestring.o(.text._ZN12SimpleStringpLEPKc) for SimpleString::operator +=(const char*)
    junittestoutput.o(.ARM.exidx.text._ZN15JUnitTestOutput5printEPKc) refers to junittestoutput.o(.text._ZN15JUnitTestOutput5printEPKc) for [Anonymous Symbol]
    junittestoutput.o(.ARM.exidx.text._ZN15JUnitTestOutput5printEl) refers to junittestoutput.o(.text._ZN15JUnitTestOutput5printEl) for [Anonymous Symbol]
    junittestoutput.o(.ARM.exidx.text._ZN15JUnitTestOutput5printEj) refers to junittestoutput.o(.text._ZN15JUnitTestOutput5printEj) for [Anonymous Symbol]
    junittestoutput.o(.ARM.exidx.text._ZN15JUnitTestOutput5flushEv) refers to junittestoutput.o(.text._ZN15JUnitTestOutput5flushEv) for [Anonymous Symbol]
    junittestoutput.o(.text._ZN15JUnitTestOutput12printFailureERK11TestFailure) refers to memoryleakwarningplugin.o(.text._ZnwjPKci) for operator new(unsigned, const char*, int)
    junittestoutput.o(.text._ZN15JUnitTestOutput12printFailureERK11TestFailure) refers to testfailure.o(.text._ZN11TestFailureC2ERKS_) for TestFailure::TestFailure(const TestFailure&)
    junittestoutput.o(.text._ZN15JUnitTestOutput12printFailureERK11TestFailure) refers to junittestoutput.o(.rodata.str1.1) for .L.str
    junittestoutput.o(.ARM.exidx.text._ZN15JUnitTestOutput12printFailureERK11TestFailure) refers to junittestoutput.o(.text._ZN15JUnitTestOutput12printFailureERK11TestFailure) for [Anonymous Symbol]
    junittestoutput.o(.text._ZN15JUnitTestOutput16openFileForWriteERK12SimpleString) refers to simplestring.o(.text._ZNK12SimpleString12asCharStringEv) for SimpleString::asCharString() const
    junittestoutput.o(.text._ZN15JUnitTestOutput16openFileForWriteERK12SimpleString) refers to utestplatform.o(.data.PlatformSpecificFOpen) for PlatformSpecificFOpen
    junittestoutput.o(.ARM.exidx.text._ZN15JUnitTestOutput16openFileForWriteERK12SimpleString) refers to junittestoutput.o(.text._ZN15JUnitTestOutput16openFileForWriteERK12SimpleString) for [Anonymous Symbol]
    junittestoutput.o(.text._ZN15JUnitTestOutput11writeToFileERK12SimpleString) refers to simplestring.o(.text._ZNK12SimpleString12asCharStringEv) for SimpleString::asCharString() const
    junittestoutput.o(.text._ZN15JUnitTestOutput11writeToFileERK12SimpleString) refers to utestplatform.o(.data.PlatformSpecificFPuts) for PlatformSpecificFPuts
    junittestoutput.o(.ARM.exidx.text._ZN15JUnitTestOutput11writeToFileERK12SimpleString) refers to junittestoutput.o(.text._ZN15JUnitTestOutput11writeToFileERK12SimpleString) for [Anonymous Symbol]
    junittestoutput.o(.text._ZN15JUnitTestOutput9closeFileEv) refers to utestplatform.o(.data.PlatformSpecificFClose) for PlatformSpecificFClose
    junittestoutput.o(.ARM.exidx.text._ZN15JUnitTestOutput9closeFileEv) refers to junittestoutput.o(.text._ZN15JUnitTestOutput9closeFileEv) for [Anonymous Symbol]
    junittestoutput.o(.rodata._ZTV15JUnitTestOutput) refers to junittestoutput.o(.rodata._ZTI15JUnitTestOutput) for typeinfo for JUnitTestOutput
    junittestoutput.o(.rodata._ZTV15JUnitTestOutput) refers to junittestoutput.o(.text._ZN15JUnitTestOutputD2Ev) for JUnitTestOutput::~JUnitTestOutput__sub_object()
    junittestoutput.o(.rodata._ZTV15JUnitTestOutput) refers to junittestoutput.o(.text._ZN15JUnitTestOutputD0Ev) for JUnitTestOutput::~JUnitTestOutput__deallocating()
    junittestoutput.o(.rodata._ZTV15JUnitTestOutput) refers to junittestoutput.o(.text._ZN15JUnitTestOutput17printTestsStartedEv) for JUnitTestOutput::printTestsStarted()
    junittestoutput.o(.rodata._ZTV15JUnitTestOutput) refers to junittestoutput.o(.text._ZN15JUnitTestOutput15printTestsEndedERK10TestResult) for JUnitTestOutput::printTestsEnded(const TestResult&)
    junittestoutput.o(.rodata._ZTV15JUnitTestOutput) refers to junittestoutput.o(.text._ZN15JUnitTestOutput23printCurrentTestStartedERK10UtestShell) for JUnitTestOutput::printCurrentTestStarted(const UtestShell&)
    junittestoutput.o(.rodata._ZTV15JUnitTestOutput) refers to junittestoutput.o(.text._ZN15JUnitTestOutput21printCurrentTestEndedERK10TestResult) for JUnitTestOutput::printCurrentTestEnded(const TestResult&)
    junittestoutput.o(.rodata._ZTV15JUnitTestOutput) refers to junittestoutput.o(.text._ZN15JUnitTestOutput24printCurrentGroupStartedERK10UtestShell) for JUnitTestOutput::printCurrentGroupStarted(const UtestShell&)
    junittestoutput.o(.rodata._ZTV15JUnitTestOutput) refers to junittestoutput.o(.text._ZN15JUnitTestOutput22printCurrentGroupEndedERK10TestResult) for JUnitTestOutput::printCurrentGroupEnded(const TestResult&)
    junittestoutput.o(.rodata._ZTV15JUnitTestOutput) refers to testoutput.o(.text._ZN10TestOutput7verboseENS_14VerbosityLevelE) for TestOutput::verbose(TestOutput::VerbosityLevel)
    junittestoutput.o(.rodata._ZTV15JUnitTestOutput) refers to testoutput.o(.text._ZN10TestOutput5colorEv) for TestOutput::color()
    junittestoutput.o(.rodata._ZTV15JUnitTestOutput) refers to junittestoutput.o(.text._ZN15JUnitTestOutput11printBufferEPKc) for JUnitTestOutput::printBuffer(const char*)
    junittestoutput.o(.rodata._ZTV15JUnitTestOutput) refers to junittestoutput.o(.text._ZN15JUnitTestOutput5printEPKc) for JUnitTestOutput::print(const char*)
    junittestoutput.o(.rodata._ZTV15JUnitTestOutput) refers to junittestoutput.o(.text._ZN15JUnitTestOutput5printEl) for JUnitTestOutput::print(long)
    junittestoutput.o(.rodata._ZTV15JUnitTestOutput) refers to junittestoutput.o(.text._ZN15JUnitTestOutput5printEj) for JUnitTestOutput::print(unsigned)
    junittestoutput.o(.rodata._ZTV15JUnitTestOutput) refers to testoutput.o(.text._ZN10TestOutput11printDoubleEd) for TestOutput::printDouble(double)
    junittestoutput.o(.rodata._ZTV15JUnitTestOutput) refers to junittestoutput.o(.text._ZN15JUnitTestOutput12printFailureERK11TestFailure) for JUnitTestOutput::printFailure(const TestFailure&)
    junittestoutput.o(.rodata._ZTV15JUnitTestOutput) refers to testoutput.o(.text._ZN10TestOutput12printTestRunEjj) for TestOutput::printTestRun(unsigned, unsigned)
    junittestoutput.o(.rodata._ZTV15JUnitTestOutput) refers to testoutput.o(.text._ZN10TestOutput20setProgressIndicatorEPKc) for TestOutput::setProgressIndicator(const char*)
    junittestoutput.o(.rodata._ZTV15JUnitTestOutput) refers to testoutput.o(.text._ZN10TestOutput16printVeryVerboseEPKc) for TestOutput::printVeryVerbose(const char*)
    junittestoutput.o(.rodata._ZTV15JUnitTestOutput) refers to junittestoutput.o(.text._ZN15JUnitTestOutput5flushEv) for JUnitTestOutput::flush()
    junittestoutput.o(.rodata._ZTV15JUnitTestOutput) refers to testoutput.o(.text._ZN10TestOutput29printEclipseErrorInFileOnLineE12SimpleStringj) for TestOutput::printEclipseErrorInFileOnLine(SimpleString, unsigned)
    junittestoutput.o(.rodata._ZTV15JUnitTestOutput) refers to testoutput.o(.text._ZN10TestOutput34printVisualStudioErrorInFileOnLineE12SimpleStringj) for TestOutput::printVisualStudioErrorInFileOnLine(SimpleString, unsigned)
    junittestoutput.o(.rodata._ZTV15JUnitTestOutput) refers to testoutput.o(.text._ZN10TestOutput22printProgressIndicatorEv) for TestOutput::printProgressIndicator()
    junittestoutput.o(.rodata._ZTV15JUnitTestOutput) refers to junittestoutput.o(.text._ZN15JUnitTestOutput14createFileNameERK12SimpleString) for JUnitTestOutput::createFileName(const SimpleString&)
    junittestoutput.o(.rodata._ZTV15JUnitTestOutput) refers to junittestoutput.o(.text._ZN15JUnitTestOutput16openFileForWriteERK12SimpleString) for JUnitTestOutput::openFileForWrite(const SimpleString&)
    junittestoutput.o(.rodata._ZTV15JUnitTestOutput) refers to junittestoutput.o(.text._ZN15JUnitTestOutput20writeTestGroupToFileEv) for JUnitTestOutput::writeTestGroupToFile()
    junittestoutput.o(.rodata._ZTV15JUnitTestOutput) refers to junittestoutput.o(.text._ZN15JUnitTestOutput11writeToFileERK12SimpleString) for JUnitTestOutput::writeToFile(const SimpleString&)
    junittestoutput.o(.rodata._ZTV15JUnitTestOutput) refers to junittestoutput.o(.text._ZN15JUnitTestOutput9closeFileEv) for JUnitTestOutput::closeFile()
    junittestoutput.o(.rodata._ZTV15JUnitTestOutput) refers to junittestoutput.o(.text._ZN15JUnitTestOutput14writeXmlHeaderEv) for JUnitTestOutput::writeXmlHeader()
    junittestoutput.o(.rodata._ZTV15JUnitTestOutput) refers to junittestoutput.o(.text._ZN15JUnitTestOutput21writeTestSuiteSummaryEv) for JUnitTestOutput::writeTestSuiteSummary()
    junittestoutput.o(.rodata._ZTV15JUnitTestOutput) refers to junittestoutput.o(.text._ZN15JUnitTestOutput15writePropertiesEv) for JUnitTestOutput::writeProperties()
    junittestoutput.o(.rodata._ZTV15JUnitTestOutput) refers to junittestoutput.o(.text._ZN15JUnitTestOutput14writeTestCasesEv) for JUnitTestOutput::writeTestCases()
    junittestoutput.o(.rodata._ZTV15JUnitTestOutput) refers to junittestoutput.o(.text._ZN15JUnitTestOutput13encodeXmlTextERK12SimpleString) for JUnitTestOutput::encodeXmlText(const SimpleString&)
    junittestoutput.o(.rodata._ZTV15JUnitTestOutput) refers to junittestoutput.o(.text._ZN15JUnitTestOutput14encodeFileNameERK12SimpleString) for JUnitTestOutput::encodeFileName(const SimpleString&)
    junittestoutput.o(.rodata._ZTV15JUnitTestOutput) refers to junittestoutput.o(.text._ZN15JUnitTestOutput12writeFailureEP23JUnitTestCaseResultNode) for JUnitTestOutput::writeFailure(JUnitTestCaseResultNode*)
    junittestoutput.o(.rodata._ZTV15JUnitTestOutput) refers to junittestoutput.o(.text._ZN15JUnitTestOutput15writeFileEndingEv) for JUnitTestOutput::writeFileEnding()
    junittestoutput.o(.rodata._ZTI15JUnitTestOutput) refers to private_typeinfo.cpp.o(.rodata._ZTVN10__cxxabiv120__si_class_type_infoE) for vtable for __cxxabiv1::__si_class_type_info
    junittestoutput.o(.rodata._ZTI15JUnitTestOutput) refers to junittestoutput.o(.rodata._ZTS15JUnitTestOutput) for typeinfo name for JUnitTestOutput
    junittestoutput.o(.rodata._ZTI15JUnitTestOutput) refers to testoutput.o(.rodata._ZTI10TestOutput) for typeinfo for TestOutput
    memoryleakdetector.o(.ARM.exidx.text._ZN18SimpleStringBufferC2Ev) refers to memoryleakdetector.o(.text._ZN18SimpleStringBufferC2Ev) for [Anonymous Symbol]
    memoryleakdetector.o(.ARM.exidx.text._ZN18SimpleStringBuffer5clearEv) refers to memoryleakdetector.o(.text._ZN18SimpleStringBuffer5clearEv) for [Anonymous Symbol]
    memoryleakdetector.o(.text._ZN18SimpleStringBuffer3addEPKcz) refers to utestplatform.o(.data.PlatformSpecificVSNprintf) for PlatformSpecificVSNprintf
    memoryleakdetector.o(.ARM.exidx.text._ZN18SimpleStringBuffer3addEPKcz) refers to memoryleakdetector.o(.text._ZN18SimpleStringBuffer3addEPKcz) for [Anonymous Symbol]
    memoryleakdetector.o(.text._ZN18SimpleStringBuffer13addMemoryDumpEPKvj) refers to memoryleakdetector.o(.text._ZN18SimpleStringBuffer3addEPKcz) for SimpleStringBuffer::add(const char*, ...)
    memoryleakdetector.o(.text._ZN18SimpleStringBuffer13addMemoryDumpEPKvj) refers to memoryleakdetector.o(.rodata.str1.1) for .L.str.2
    memoryleakdetector.o(.ARM.exidx.text._ZN18SimpleStringBuffer13addMemoryDumpEPKvj) refers to memoryleakdetector.o(.text._ZN18SimpleStringBuffer13addMemoryDumpEPKvj) for [Anonymous Symbol]
    memoryleakdetector.o(.ARM.exidx.text._ZN18SimpleStringBuffer8toStringEv) refers to memoryleakdetector.o(.text._ZN18SimpleStringBuffer8toStringEv) for [Anonymous Symbol]
    memoryleakdetector.o(.ARM.exidx.text._ZN18SimpleStringBuffer13setWriteLimitEj) refers to memoryleakdetector.o(.text._ZN18SimpleStringBuffer13setWriteLimitEj) for [Anonymous Symbol]
    memoryleakdetector.o(.ARM.exidx.text._ZN18SimpleStringBuffer15resetWriteLimitEv) refers to memoryleakdetector.o(.text._ZN18SimpleStringBuffer15resetWriteLimitEv) for [Anonymous Symbol]
    memoryleakdetector.o(.ARM.exidx.text._ZN18SimpleStringBuffer18reachedItsCapacityEv) refers to memoryleakdetector.o(.text._ZN18SimpleStringBuffer18reachedItsCapacityEv) for [Anonymous Symbol]
    memoryleakdetector.o(.ARM.exidx.text._ZN28MemoryLeakOutputStringBufferC2Ev) refers to memoryleakdetector.o(.text._ZN28MemoryLeakOutputStringBufferC2Ev) for [Anonymous Symbol]
    memoryleakdetector.o(.text._ZN28MemoryLeakOutputStringBuffer21addAllocationLocationEPKcjjP19TestMemoryAllocator) refers to memoryleakdetector.o(.text._ZN18SimpleStringBuffer3addEPKcz) for SimpleStringBuffer::add(const char*, ...)
    memoryleakdetector.o(.ARM.exidx.text._ZN28MemoryLeakOutputStringBuffer21addAllocationLocationEPKcjjP19TestMemoryAllocator) refers to memoryleakdetector.o(.text._ZN28MemoryLeakOutputStringBuffer21addAllocationLocationEPKcjjP19TestMemoryAllocator) for [Anonymous Symbol]
    memoryleakdetector.o(.text._ZN28MemoryLeakOutputStringBuffer23addDeallocationLocationEPKcjP19TestMemoryAllocator) refers to memoryleakdetector.o(.text._ZN18SimpleStringBuffer3addEPKcz) for SimpleStringBuffer::add(const char*, ...)
    memoryleakdetector.o(.ARM.exidx.text._ZN28MemoryLeakOutputStringBuffer23addDeallocationLocationEPKcjP19TestMemoryAllocator) refers to memoryleakdetector.o(.text._ZN28MemoryLeakOutputStringBuffer23addDeallocationLocationEPKcjP19TestMemoryAllocator) for [Anonymous Symbol]
    memoryleakdetector.o(.text._ZN28MemoryLeakOutputStringBuffer23addNoMemoryLeaksMessageEv) refers to memoryleakdetector.o(.text._ZN18SimpleStringBuffer3addEPKcz) for SimpleStringBuffer::add(const char*, ...)
    memoryleakdetector.o(.ARM.exidx.text._ZN28MemoryLeakOutputStringBuffer23addNoMemoryLeaksMessageEv) refers to memoryleakdetector.o(.text._ZN28MemoryLeakOutputStringBuffer23addNoMemoryLeaksMessageEv) for [Anonymous Symbol]
    memoryleakdetector.o(.ARM.exidx.text._ZN28MemoryLeakOutputStringBuffer24startMemoryLeakReportingEv) refers to memoryleakdetector.o(.text._ZN28MemoryLeakOutputStringBuffer24startMemoryLeakReportingEv) for [Anonymous Symbol]
    memoryleakdetector.o(.text._ZN28MemoryLeakOutputStringBuffer16reportMemoryLeakEP22MemoryLeakDetectorNode) refers to memoryleakdetector.o(.text._ZN28MemoryLeakOutputStringBuffer19addMemoryLeakHeaderEv) for MemoryLeakOutputStringBuffer::addMemoryLeakHeader()
    memoryleakdetector.o(.text._ZN28MemoryLeakOutputStringBuffer16reportMemoryLeakEP22MemoryLeakDetectorNode) refers to memoryleakdetector.o(.text._ZN18SimpleStringBuffer3addEPKcz) for SimpleStringBuffer::add(const char*, ...)
    memoryleakdetector.o(.text._ZN28MemoryLeakOutputStringBuffer16reportMemoryLeakEP22MemoryLeakDetectorNode) refers to memoryleakdetector.o(.text._ZN18SimpleStringBuffer13addMemoryDumpEPKvj) for SimpleStringBuffer::addMemoryDump(const void*, unsigned)
    memoryleakdetector.o(.text._ZN28MemoryLeakOutputStringBuffer16reportMemoryLeakEP22MemoryLeakDetectorNode) refers to simplestring.o(.text._ZN12SimpleString6StrCmpEPKcS1_) for SimpleString::StrCmp(const char*, const char*)
    memoryleakdetector.o(.text._ZN28MemoryLeakOutputStringBuffer16reportMemoryLeakEP22MemoryLeakDetectorNode) refers to memoryleakdetector.o(.rodata.str1.1) for .L.str.10
    memoryleakdetector.o(.ARM.exidx.text._ZN28MemoryLeakOutputStringBuffer16reportMemoryLeakEP22MemoryLeakDetectorNode) refers to memoryleakdetector.o(.text._ZN28MemoryLeakOutputStringBuffer16reportMemoryLeakEP22MemoryLeakDetectorNode) for [Anonymous Symbol]
    memoryleakdetector.o(.text._ZN28MemoryLeakOutputStringBuffer19addMemoryLeakHeaderEv) refers to memoryleakdetector.o(.text._ZN18SimpleStringBuffer3addEPKcz) for SimpleStringBuffer::add(const char*, ...)
    memoryleakdetector.o(.ARM.exidx.text._ZN28MemoryLeakOutputStringBuffer19addMemoryLeakHeaderEv) refers to memoryleakdetector.o(.text._ZN28MemoryLeakOutputStringBuffer19addMemoryLeakHeaderEv) for [Anonymous Symbol]
    memoryleakdetector.o(.text._ZN28MemoryLeakOutputStringBuffer23stopMemoryLeakReportingEv) refers to memoryleakdetector.o(.text._ZN28MemoryLeakOutputStringBuffer30addErrorMessageForTooMuchLeaksEv) for MemoryLeakOutputStringBuffer::addErrorMessageForTooMuchLeaks()
    memoryleakdetector.o(.text._ZN28MemoryLeakOutputStringBuffer23stopMemoryLeakReportingEv) refers to memoryleakdetector.o(.text._ZN28MemoryLeakOutputStringBuffer19addMemoryLeakFooterEj) for MemoryLeakOutputStringBuffer::addMemoryLeakFooter(unsigned)
    memoryleakdetector.o(.text._ZN28MemoryLeakOutputStringBuffer23stopMemoryLeakReportingEv) refers to memoryleakdetector.o(.text._ZN28MemoryLeakOutputStringBuffer24addWarningForUsingMallocEv) for MemoryLeakOutputStringBuffer::addWarningForUsingMalloc()
    memoryleakdetector.o(.text._ZN28MemoryLeakOutputStringBuffer23stopMemoryLeakReportingEv) refers to memoryleakdetector.o(.text._ZN28MemoryLeakOutputStringBuffer23addNoMemoryLeaksMessageEv) for MemoryLeakOutputStringBuffer::addNoMemoryLeaksMessage()
    memoryleakdetector.o(.ARM.exidx.text._ZN28MemoryLeakOutputStringBuffer23stopMemoryLeakReportingEv) refers to memoryleakdetector.o(.text._ZN28MemoryLeakOutputStringBuffer23stopMemoryLeakReportingEv) for [Anonymous Symbol]
    memoryleakdetector.o(.text._ZN28MemoryLeakOutputStringBuffer30addErrorMessageForTooMuchLeaksEv) refers to memoryleakdetector.o(.text._ZN18SimpleStringBuffer3addEPKcz) for SimpleStringBuffer::add(const char*, ...)
    memoryleakdetector.o(.text._ZN28MemoryLeakOutputStringBuffer30addErrorMessageForTooMuchLeaksEv) refers to memoryleakdetector.o(.rodata.str1.1) for .L.str.13
    memoryleakdetector.o(.ARM.exidx.text._ZN28MemoryLeakOutputStringBuffer30addErrorMessageForTooMuchLeaksEv) refers to memoryleakdetector.o(.text._ZN28MemoryLeakOutputStringBuffer30addErrorMessageForTooMuchLeaksEv) for [Anonymous Symbol]
    memoryleakdetector.o(.text._ZN28MemoryLeakOutputStringBuffer19addMemoryLeakFooterEj) refers to memoryleakdetector.o(.text._ZN18SimpleStringBuffer3addEPKcz) for SimpleStringBuffer::add(const char*, ...)
    memoryleakdetector.o(.ARM.exidx.text._ZN28MemoryLeakOutputStringBuffer19addMemoryLeakFooterEj) refers to memoryleakdetector.o(.text._ZN28MemoryLeakOutputStringBuffer19addMemoryLeakFooterEj) for [Anonymous Symbol]
    memoryleakdetector.o(.text._ZN28MemoryLeakOutputStringBuffer24addWarningForUsingMallocEv) refers to memoryleakdetector.o(.text._ZN18SimpleStringBuffer3addEPKcz) for SimpleStringBuffer::add(const char*, ...)
    memoryleakdetector.o(.text._ZN28MemoryLeakOutputStringBuffer24addWarningForUsingMallocEv) refers to memoryleakdetector.o(.rodata.str1.1) for .L.str.16
    memoryleakdetector.o(.ARM.exidx.text._ZN28MemoryLeakOutputStringBuffer24addWarningForUsingMallocEv) refers to memoryleakdetector.o(.text._ZN28MemoryLeakOutputStringBuffer24addWarningForUsingMallocEv) for [Anonymous Symbol]
    memoryleakdetector.o(.text._ZN28MemoryLeakOutputStringBuffer41reportDeallocateNonAllocatedMemoryFailureEPKcjP19TestMemoryAllocatorP17MemoryLeakFailure) refers to testmemoryallocator.o(.text._ZN20NullUnknownAllocator16defaultAllocatorEv) for NullUnknownAllocator::defaultAllocator()
    memoryleakdetector.o(.text._ZN28MemoryLeakOutputStringBuffer41reportDeallocateNonAllocatedMemoryFailureEPKcjP19TestMemoryAllocatorP17MemoryLeakFailure) refers to memoryleakdetector.o(.text._ZN28MemoryLeakOutputStringBuffer13reportFailureEPKcS1_jjP19TestMemoryAllocatorS1_jS3_P17MemoryLeakFailure) for MemoryLeakOutputStringBuffer::reportFailure(const char*, const char*, unsigned, unsigned, TestMemoryAllocator*, const char*, unsigned, TestMemoryAllocator*, MemoryLeakFailure*)
    memoryleakdetector.o(.text._ZN28MemoryLeakOutputStringBuffer41reportDeallocateNonAllocatedMemoryFailureEPKcjP19TestMemoryAllocatorP17MemoryLeakFailure) refers to memoryleakdetector.o(.rodata.str1.1) for .L.str.18
    memoryleakdetector.o(.ARM.exidx.text._ZN28MemoryLeakOutputStringBuffer41reportDeallocateNonAllocatedMemoryFailureEPKcjP19TestMemoryAllocatorP17MemoryLeakFailure) refers to memoryleakdetector.o(.text._ZN28MemoryLeakOutputStringBuffer41reportDeallocateNonAllocatedMemoryFailureEPKcjP19TestMemoryAllocatorP17MemoryLeakFailure) for [Anonymous Symbol]
    memoryleakdetector.o(.text._ZN28MemoryLeakOutputStringBuffer13reportFailureEPKcS1_jjP19TestMemoryAllocatorS1_jS3_P17MemoryLeakFailure) refers to memoryleakdetector.o(.text._ZN18SimpleStringBuffer3addEPKcz) for SimpleStringBuffer::add(const char*, ...)
    memoryleakdetector.o(.text._ZN28MemoryLeakOutputStringBuffer13reportFailureEPKcS1_jjP19TestMemoryAllocatorS1_jS3_P17MemoryLeakFailure) refers to memoryleakdetector.o(.text._ZN28MemoryLeakOutputStringBuffer21addAllocationLocationEPKcjjP19TestMemoryAllocator) for MemoryLeakOutputStringBuffer::addAllocationLocation(const char*, unsigned, unsigned, TestMemoryAllocator*)
    memoryleakdetector.o(.text._ZN28MemoryLeakOutputStringBuffer13reportFailureEPKcS1_jjP19TestMemoryAllocatorS1_jS3_P17MemoryLeakFailure) refers to memoryleakdetector.o(.text._ZN28MemoryLeakOutputStringBuffer23addDeallocationLocationEPKcjP19TestMemoryAllocator) for MemoryLeakOutputStringBuffer::addDeallocationLocation(const char*, unsigned, TestMemoryAllocator*)
    memoryleakdetector.o(.ARM.exidx.text._ZN28MemoryLeakOutputStringBuffer13reportFailureEPKcS1_jjP19TestMemoryAllocatorS1_jS3_P17MemoryLeakFailure) refers to memoryleakdetector.o(.text._ZN28MemoryLeakOutputStringBuffer13reportFailureEPKcS1_jjP19TestMemoryAllocatorS1_jS3_P17MemoryLeakFailure) for [Anonymous Symbol]
    memoryleakdetector.o(.text._ZN28MemoryLeakOutputStringBuffer43reportAllocationDeallocationMismatchFailureEP22MemoryLeakDetectorNodePKcjP19TestMemoryAllocatorP17MemoryLeakFailure) refers to memoryleakdetector.o(.text._ZN28MemoryLeakOutputStringBuffer13reportFailureEPKcS1_jjP19TestMemoryAllocatorS1_jS3_P17MemoryLeakFailure) for MemoryLeakOutputStringBuffer::reportFailure(const char*, const char*, unsigned, unsigned, TestMemoryAllocator*, const char*, unsigned, TestMemoryAllocator*, MemoryLeakFailure*)
    memoryleakdetector.o(.ARM.exidx.text._ZN28MemoryLeakOutputStringBuffer43reportAllocationDeallocationMismatchFailureEP22MemoryLeakDetectorNodePKcjP19TestMemoryAllocatorP17MemoryLeakFailure) refers to memoryleakdetector.o(.text._ZN28MemoryLeakOutputStringBuffer43reportAllocationDeallocationMismatchFailureEP22MemoryLeakDetectorNodePKcjP19TestMemoryAllocatorP17MemoryLeakFailure) for [Anonymous Symbol]
    memoryleakdetector.o(.text._ZN28MemoryLeakOutputStringBuffer29reportMemoryCorruptionFailureEP22MemoryLeakDetectorNodePKcjP19TestMemoryAllocatorP17MemoryLeakFailure) refers to memoryleakdetector.o(.text._ZN28MemoryLeakOutputStringBuffer13reportFailureEPKcS1_jjP19TestMemoryAllocatorS1_jS3_P17MemoryLeakFailure) for MemoryLeakOutputStringBuffer::reportFailure(const char*, const char*, unsigned, unsigned, TestMemoryAllocator*, const char*, unsigned, TestMemoryAllocator*, MemoryLeakFailure*)
    memoryleakdetector.o(.ARM.exidx.text._ZN28MemoryLeakOutputStringBuffer29reportMemoryCorruptionFailureEP22MemoryLeakDetectorNodePKcjP19TestMemoryAllocatorP17MemoryLeakFailure) refers to memoryleakdetector.o(.text._ZN28MemoryLeakOutputStringBuffer29reportMemoryCorruptionFailureEP22MemoryLeakDetectorNodePKcjP19TestMemoryAllocatorP17MemoryLeakFailure) for [Anonymous Symbol]
    memoryleakdetector.o(.ARM.exidx.text._ZN28MemoryLeakOutputStringBuffer8toStringEv) refers to memoryleakdetector.o(.text._ZN28MemoryLeakOutputStringBuffer8toStringEv) for [Anonymous Symbol]
    memoryleakdetector.o(.ARM.exidx.text._ZN28MemoryLeakOutputStringBuffer5clearEv) refers to memoryleakdetector.o(.text._ZN28MemoryLeakOutputStringBuffer5clearEv) for [Anonymous Symbol]
    memoryleakdetector.o(.ARM.exidx.text._ZN22MemoryLeakDetectorNode4initEPcjjP19TestMemoryAllocator13MemLeakPeriodhPKcj) refers to memoryleakdetector.o(.text._ZN22MemoryLeakDetectorNode4initEPcjjP19TestMemoryAllocator13MemLeakPeriodhPKcj) for [Anonymous Symbol]
    memoryleakdetector.o(.ARM.exidx.text._ZN22MemoryLeakDetectorList10isInPeriodEP22MemoryLeakDetectorNode13MemLeakPeriod) refers to memoryleakdetector.o(.text._ZN22MemoryLeakDetectorList10isInPeriodEP22MemoryLeakDetectorNode13MemLeakPeriod) for [Anonymous Symbol]
    memoryleakdetector.o(.ARM.exidx.text._ZN22MemoryLeakDetectorList19isInAllocationStageEP22MemoryLeakDetectorNodeh) refers to memoryleakdetector.o(.text._ZN22MemoryLeakDetectorList19isInAllocationStageEP22MemoryLeakDetectorNodeh) for [Anonymous Symbol]
    memoryleakdetector.o(.ARM.exidx.text._ZN22MemoryLeakDetectorList18clearAllAccountingE13MemLeakPeriod) refers to memoryleakdetector.o(.text._ZN22MemoryLeakDetectorList18clearAllAccountingE13MemLeakPeriod) for [Anonymous Symbol]
    memoryleakdetector.o(.ARM.exidx.text._ZN22MemoryLeakDetectorList10addNewNodeEP22MemoryLeakDetectorNode) refers to memoryleakdetector.o(.text._ZN22MemoryLeakDetectorList10addNewNodeEP22MemoryLeakDetectorNode) for [Anonymous Symbol]
    memoryleakdetector.o(.ARM.exidx.text._ZN22MemoryLeakDetectorList10removeNodeEPc) refers to memoryleakdetector.o(.text._ZN22MemoryLeakDetectorList10removeNodeEPc) for [Anonymous Symbol]
    memoryleakdetector.o(.ARM.exidx.text._ZN22MemoryLeakDetectorList12retrieveNodeEPc) refers to memoryleakdetector.o(.text._ZN22MemoryLeakDetectorList12retrieveNodeEPc) for [Anonymous Symbol]
    memoryleakdetector.o(.ARM.exidx.text._ZN22MemoryLeakDetectorList11getLeakFromEP22MemoryLeakDetectorNode13MemLeakPeriod) refers to memoryleakdetector.o(.text._ZN22MemoryLeakDetectorList11getLeakFromEP22MemoryLeakDetectorNode13MemLeakPeriod) for [Anonymous Symbol]
    memoryleakdetector.o(.ARM.exidx.text._ZN22MemoryLeakDetectorList29getLeakForAllocationStageFromEP22MemoryLeakDetectorNodeh) refers to memoryleakdetector.o(.text._ZN22MemoryLeakDetectorList29getLeakForAllocationStageFromEP22MemoryLeakDetectorNodeh) for [Anonymous Symbol]
    memoryleakdetector.o(.text._ZN22MemoryLeakDetectorList12getFirstLeakE13MemLeakPeriod) refers to memoryleakdetector.o(.text._ZN22MemoryLeakDetectorList11getLeakFromEP22MemoryLeakDetectorNode13MemLeakPeriod) for MemoryLeakDetectorList::getLeakFrom(MemoryLeakDetectorNode*, MemLeakPeriod)
    memoryleakdetector.o(.ARM.exidx.text._ZN22MemoryLeakDetectorList12getFirstLeakE13MemLeakPeriod) refers to memoryleakdetector.o(.text._ZN22MemoryLeakDetectorList12getFirstLeakE13MemLeakPeriod) for [Anonymous Symbol]
    memoryleakdetector.o(.text._ZN22MemoryLeakDetectorList30getFirstLeakForAllocationStageEh) refers to memoryleakdetector.o(.text._ZN22MemoryLeakDetectorList29getLeakForAllocationStageFromEP22MemoryLeakDetectorNodeh) for MemoryLeakDetectorList::getLeakForAllocationStageFrom(MemoryLeakDetectorNode*, unsigned char)
    memoryleakdetector.o(.ARM.exidx.text._ZN22MemoryLeakDetectorList30getFirstLeakForAllocationStageEh) refers to memoryleakdetector.o(.text._ZN22MemoryLeakDetectorList30getFirstLeakForAllocationStageEh) for [Anonymous Symbol]
    memoryleakdetector.o(.text._ZN22MemoryLeakDetectorList11getNextLeakEP22MemoryLeakDetectorNode13MemLeakPeriod) refers to memoryleakdetector.o(.text._ZN22MemoryLeakDetectorList11getLeakFromEP22MemoryLeakDetectorNode13MemLeakPeriod) for MemoryLeakDetectorList::getLeakFrom(MemoryLeakDetectorNode*, MemLeakPeriod)
    memoryleakdetector.o(.ARM.exidx.text._ZN22MemoryLeakDetectorList11getNextLeakEP22MemoryLeakDetectorNode13MemLeakPeriod) refers to memoryleakdetector.o(.text._ZN22MemoryLeakDetectorList11getNextLeakEP22MemoryLeakDetectorNode13MemLeakPeriod) for [Anonymous Symbol]
    memoryleakdetector.o(.text._ZN22MemoryLeakDetectorList29getNextLeakForAllocationStageEP22MemoryLeakDetectorNodeh) refers to memoryleakdetector.o(.text._ZN22MemoryLeakDetectorList29getLeakForAllocationStageFromEP22MemoryLeakDetectorNodeh) for MemoryLeakDetectorList::getLeakForAllocationStageFrom(MemoryLeakDetectorNode*, unsigned char)
    memoryleakdetector.o(.ARM.exidx.text._ZN22MemoryLeakDetectorList29getNextLeakForAllocationStageEP22MemoryLeakDetectorNodeh) refers to memoryleakdetector.o(.text._ZN22MemoryLeakDetectorList29getNextLeakForAllocationStageEP22MemoryLeakDetectorNodeh) for [Anonymous Symbol]
    memoryleakdetector.o(.ARM.exidx.text._ZN22MemoryLeakDetectorList13getTotalLeaksE13MemLeakPeriod) refers to memoryleakdetector.o(.text._ZN22MemoryLeakDetectorList13getTotalLeaksE13MemLeakPeriod) for [Anonymous Symbol]
    memoryleakdetector.o(.ARM.exidx.text._ZN23MemoryLeakDetectorTable4hashEPc) refers to memoryleakdetector.o(.text._ZN23MemoryLeakDetectorTable4hashEPc) for [Anonymous Symbol]
    memoryleakdetector.o(.text._ZN23MemoryLeakDetectorTable18clearAllAccountingE13MemLeakPeriod) refers to memoryleakdetector.o(.text._ZN22MemoryLeakDetectorList18clearAllAccountingE13MemLeakPeriod) for MemoryLeakDetectorList::clearAllAccounting(MemLeakPeriod)
    memoryleakdetector.o(.ARM.exidx.text._ZN23MemoryLeakDetectorTable18clearAllAccountingE13MemLeakPeriod) refers to memoryleakdetector.o(.text._ZN23MemoryLeakDetectorTable18clearAllAccountingE13MemLeakPeriod) for [Anonymous Symbol]
    memoryleakdetector.o(.ARM.exidx.text._ZN23MemoryLeakDetectorTable10addNewNodeEP22MemoryLeakDetectorNode) refers to memoryleakdetector.o(.text._ZN23MemoryLeakDetectorTable10addNewNodeEP22MemoryLeakDetectorNode) for [Anonymous Symbol]
    memoryleakdetector.o(.text._ZN23MemoryLeakDetectorTable10removeNodeEPc) refers to memoryleakdetector.o(.text._ZN22MemoryLeakDetectorList10removeNodeEPc) for MemoryLeakDetectorList::removeNode(char*)
    memoryleakdetector.o(.ARM.exidx.text._ZN23MemoryLeakDetectorTable10removeNodeEPc) refers to memoryleakdetector.o(.text._ZN23MemoryLeakDetectorTable10removeNodeEPc) for [Anonymous Symbol]
    memoryleakdetector.o(.text._ZN23MemoryLeakDetectorTable12retrieveNodeEPc) refers to memoryleakdetector.o(.text._ZN22MemoryLeakDetectorList12retrieveNodeEPc) for MemoryLeakDetectorList::retrieveNode(char*)
    memoryleakdetector.o(.ARM.exidx.text._ZN23MemoryLeakDetectorTable12retrieveNodeEPc) refers to memoryleakdetector.o(.text._ZN23MemoryLeakDetectorTable12retrieveNodeEPc) for [Anonymous Symbol]
    memoryleakdetector.o(.text._ZN23MemoryLeakDetectorTable13getTotalLeaksE13MemLeakPeriod) refers to memoryleakdetector.o(.text._ZN22MemoryLeakDetectorList13getTotalLeaksE13MemLeakPeriod) for MemoryLeakDetectorList::getTotalLeaks(MemLeakPeriod)
    memoryleakdetector.o(.ARM.exidx.text._ZN23MemoryLeakDetectorTable13getTotalLeaksE13MemLeakPeriod) refers to memoryleakdetector.o(.text._ZN23MemoryLeakDetectorTable13getTotalLeaksE13MemLeakPeriod) for [Anonymous Symbol]
    memoryleakdetector.o(.text._ZN23MemoryLeakDetectorTable12getFirstLeakE13MemLeakPeriod) refers to memoryleakdetector.o(.text._ZN22MemoryLeakDetectorList12getFirstLeakE13MemLeakPeriod) for MemoryLeakDetectorList::getFirstLeak(MemLeakPeriod)
    memoryleakdetector.o(.ARM.exidx.text._ZN23MemoryLeakDetectorTable12getFirstLeakE13MemLeakPeriod) refers to memoryleakdetector.o(.text._ZN23MemoryLeakDetectorTable12getFirstLeakE13MemLeakPeriod) for [Anonymous Symbol]
    memoryleakdetector.o(.text._ZN23MemoryLeakDetectorTable30getFirstLeakForAllocationStageEh) refers to memoryleakdetector.o(.text._ZN22MemoryLeakDetectorList30getFirstLeakForAllocationStageEh) for MemoryLeakDetectorList::getFirstLeakForAllocationStage(unsigned char)
    memoryleakdetector.o(.ARM.exidx.text._ZN23MemoryLeakDetectorTable30getFirstLeakForAllocationStageEh) refers to memoryleakdetector.o(.text._ZN23MemoryLeakDetectorTable30getFirstLeakForAllocationStageEh) for [Anonymous Symbol]
    memoryleakdetector.o(.text._ZN23MemoryLeakDetectorTable11getNextLeakEP22MemoryLeakDetectorNode13MemLeakPeriod) refers to memoryleakdetector.o(.text._ZN22MemoryLeakDetectorList11getNextLeakEP22MemoryLeakDetectorNode13MemLeakPeriod) for MemoryLeakDetectorList::getNextLeak(MemoryLeakDetectorNode*, MemLeakPeriod)
    memoryleakdetector.o(.text._ZN23MemoryLeakDetectorTable11getNextLeakEP22MemoryLeakDetectorNode13MemLeakPeriod) refers to memoryleakdetector.o(.text._ZN22MemoryLeakDetectorList12getFirstLeakE13MemLeakPeriod) for MemoryLeakDetectorList::getFirstLeak(MemLeakPeriod)
    memoryleakdetector.o(.ARM.exidx.text._ZN23MemoryLeakDetectorTable11getNextLeakEP22MemoryLeakDetectorNode13MemLeakPeriod) refers to memoryleakdetector.o(.text._ZN23MemoryLeakDetectorTable11getNextLeakEP22MemoryLeakDetectorNode13MemLeakPeriod) for [Anonymous Symbol]
    memoryleakdetector.o(.text._ZN23MemoryLeakDetectorTable29getNextLeakForAllocationStageEP22MemoryLeakDetectorNodeh) refers to memoryleakdetector.o(.text._ZN22MemoryLeakDetectorList29getNextLeakForAllocationStageEP22MemoryLeakDetectorNodeh) for MemoryLeakDetectorList::getNextLeakForAllocationStage(MemoryLeakDetectorNode*, unsigned char)
    memoryleakdetector.o(.text._ZN23MemoryLeakDetectorTable29getNextLeakForAllocationStageEP22MemoryLeakDetectorNodeh) refers to memoryleakdetector.o(.text._ZN22MemoryLeakDetectorList30getFirstLeakForAllocationStageEh) for MemoryLeakDetectorList::getFirstLeakForAllocationStage(unsigned char)
    memoryleakdetector.o(.ARM.exidx.text._ZN23MemoryLeakDetectorTable29getNextLeakForAllocationStageEP22MemoryLeakDetectorNodeh) refers to memoryleakdetector.o(.text._ZN23MemoryLeakDetectorTable29getNextLeakForAllocationStageEP22MemoryLeakDetectorNodeh) for [Anonymous Symbol]
    memoryleakdetector.o(.text._ZN18MemoryLeakDetectorC2EP17MemoryLeakFailure) refers to rt_memclr_w.o(.text) for __aeabi_memclr4
    memoryleakdetector.o(.text._ZN18MemoryLeakDetectorC2EP17MemoryLeakFailure) refers to memoryleakwarningplugin.o(.text._ZnwjPKci) for operator new(unsigned, const char*, int)
    memoryleakdetector.o(.text._ZN18MemoryLeakDetectorC2EP17MemoryLeakFailure) refers to simplemutex.o(.text._ZN11SimpleMutexC2Ev) for SimpleMutex::SimpleMutex()
    memoryleakdetector.o(.text._ZN18MemoryLeakDetectorC2EP17MemoryLeakFailure) refers to memoryleakdetector.o(.rodata._ZTV18MemoryLeakDetector) for vtable for MemoryLeakDetector
    memoryleakdetector.o(.text._ZN18MemoryLeakDetectorC2EP17MemoryLeakFailure) refers to memoryleakdetector.o(.rodata.str1.1) for .L.str.22
    memoryleakdetector.o(.ARM.exidx.text._ZN18MemoryLeakDetectorC2EP17MemoryLeakFailure) refers to memoryleakdetector.o(.text._ZN18MemoryLeakDetectorC2EP17MemoryLeakFailure) for [Anonymous Symbol]
    memoryleakdetector.o(.text._ZN18MemoryLeakDetectorD2Ev) refers to simplemutex.o(.text._ZN11SimpleMutexD2Ev) for SimpleMutex::~SimpleMutex()
    memoryleakdetector.o(.text._ZN18MemoryLeakDetectorD2Ev) refers to memoryleakwarningplugin.o(.text._ZdlPv) for operator delete (void*)
    memoryleakdetector.o(.text._ZN18MemoryLeakDetectorD2Ev) refers to memoryleakdetector.o(.rodata._ZTV18MemoryLeakDetector) for vtable for MemoryLeakDetector
    memoryleakdetector.o(.ARM.exidx.text._ZN18MemoryLeakDetectorD2Ev) refers to memoryleakdetector.o(.text._ZN18MemoryLeakDetectorD2Ev) for [Anonymous Symbol]
    memoryleakdetector.o(.text._ZN18MemoryLeakDetectorD0Ev) refers to memoryleakdetector.o(.text._ZN18MemoryLeakDetectorD2Ev) for MemoryLeakDetector::~MemoryLeakDetector__sub_object()
    memoryleakdetector.o(.text._ZN18MemoryLeakDetectorD0Ev) refers to memoryleakwarningplugin.o(.text._ZdlPv) for operator delete (void*)
    memoryleakdetector.o(.ARM.exidx.text._ZN18MemoryLeakDetectorD0Ev) refers to memoryleakdetector.o(.text._ZN18MemoryLeakDetectorD0Ev) for [Anonymous Symbol]
    memoryleakdetector.o(.text._ZN18MemoryLeakDetector18clearAllAccountingE13MemLeakPeriod) refers to memoryleakdetector.o(.text._ZN23MemoryLeakDetectorTable18clearAllAccountingE13MemLeakPeriod) for MemoryLeakDetectorTable::clearAllAccounting(MemLeakPeriod)
    memoryleakdetector.o(.ARM.exidx.text._ZN18MemoryLeakDetector18clearAllAccountingE13MemLeakPeriod) refers to memoryleakdetector.o(.text._ZN18MemoryLeakDetector18clearAllAccountingE13MemLeakPeriod) for [Anonymous Symbol]
    memoryleakdetector.o(.ARM.exidx.text._ZN18MemoryLeakDetector13startCheckingEv) refers to memoryleakdetector.o(.text._ZN18MemoryLeakDetector13startCheckingEv) for [Anonymous Symbol]
    memoryleakdetector.o(.ARM.exidx.text._ZN18MemoryLeakDetector12stopCheckingEv) refers to memoryleakdetector.o(.text._ZN18MemoryLeakDetector12stopCheckingEv) for [Anonymous Symbol]
    memoryleakdetector.o(.ARM.exidx.text._ZNK18MemoryLeakDetector25getCurrentAllocationStageEv) refers to memoryleakdetector.o(.text._ZNK18MemoryLeakDetector25getCurrentAllocationStageEv) for [Anonymous Symbol]
    memoryleakdetector.o(.ARM.exidx.text._ZN18MemoryLeakDetector6enableEv) refers to memoryleakdetector.o(.text._ZN18MemoryLeakDetector6enableEv) for [Anonymous Symbol]
    memoryleakdetector.o(.ARM.exidx.text._ZN18MemoryLeakDetector7disableEv) refers to memoryleakdetector.o(.text._ZN18MemoryLeakDetector7disableEv) for [Anonymous Symbol]
    memoryleakdetector.o(.ARM.exidx.text._ZN18MemoryLeakDetector29disableAllocationTypeCheckingEv) refers to memoryleakdetector.o(.text._ZN18MemoryLeakDetector29disableAllocationTypeCheckingEv) for [Anonymous Symbol]
    memoryleakdetector.o(.ARM.exidx.text._ZN18MemoryLeakDetector28enableAllocationTypeCheckingEv) refers to memoryleakdetector.o(.text._ZN18MemoryLeakDetector28enableAllocationTypeCheckingEv) for [Anonymous Symbol]
    memoryleakdetector.o(.ARM.exidx.text._ZN18MemoryLeakDetector26getCurrentAllocationNumberEv) refers to memoryleakdetector.o(.text._ZN18MemoryLeakDetector26getCurrentAllocationNumberEv) for [Anonymous Symbol]
    memoryleakdetector.o(.ARM.exidx.text._ZN18MemoryLeakDetector23increaseAllocationStageEv) refers to memoryleakdetector.o(.text._ZN18MemoryLeakDetector23increaseAllocationStageEv) for [Anonymous Symbol]
    memoryleakdetector.o(.ARM.exidx.text._ZN18MemoryLeakDetector23decreaseAllocationStageEv) refers to memoryleakdetector.o(.text._ZN18MemoryLeakDetector23decreaseAllocationStageEv) for [Anonymous Symbol]
    memoryleakdetector.o(.ARM.exidx.text._ZN18MemoryLeakDetector8getMutexEv) refers to memoryleakdetector.o(.text._ZN18MemoryLeakDetector8getMutexEv) for [Anonymous Symbol]
    memoryleakdetector.o(.ARM.exidx.text._ZN18MemoryLeakDetector30sizeOfMemoryWithCorruptionInfoEj) refers to memoryleakdetector.o(.text._ZN18MemoryLeakDetector30sizeOfMemoryWithCorruptionInfoEj) for [Anonymous Symbol]
    memoryleakdetector.o(.ARM.exidx.text._ZN18MemoryLeakDetector24getNodeFromMemoryPointerEPcj) refers to memoryleakdetector.o(.text._ZN18MemoryLeakDetector24getNodeFromMemoryPointerEPcj) for [Anonymous Symbol]
    memoryleakdetector.o(.ARM.exidx.text._ZN18MemoryLeakDetector20storeLeakInformationEP22MemoryLeakDetectorNodePcjP19TestMemoryAllocatorPKcj) refers to memoryleakdetector.o(.text._ZN18MemoryLeakDetector20storeLeakInformationEP22MemoryLeakDetectorNodePcjP19TestMemoryAllocatorPKcj) for [Anonymous Symbol]
    memoryleakdetector.o(.ARM.exidx.text._ZN18MemoryLeakDetector30addMemoryCorruptionInformationEPc) refers to memoryleakdetector.o(.text._ZN18MemoryLeakDetector30addMemoryCorruptionInformationEPc) for [Anonymous Symbol]
    memoryleakdetector.o(.text._ZN18MemoryLeakDetector34reallocateMemoryAndLeakInformationEP19TestMemoryAllocatorPcjPKcjb) refers to memoryleakdetector.o(.text._ZN18MemoryLeakDetector20storeLeakInformationEP22MemoryLeakDetectorNodePcjP19TestMemoryAllocatorPKcj) for MemoryLeakDetector::storeLeakInformation(MemoryLeakDetectorNode*, char*, unsigned, TestMemoryAllocator*, const char*, unsigned)
    memoryleakdetector.o(.text._ZN18MemoryLeakDetector34reallocateMemoryAndLeakInformationEP19TestMemoryAllocatorPcjPKcjb) refers to utestplatform.o(.data.PlatformSpecificRealloc) for PlatformSpecificRealloc
    memoryleakdetector.o(.ARM.exidx.text._ZN18MemoryLeakDetector34reallocateMemoryAndLeakInformationEP19TestMemoryAllocatorPcjPKcjb) refers to memoryleakdetector.o(.text._ZN18MemoryLeakDetector34reallocateMemoryAndLeakInformationEP19TestMemoryAllocatorPcjPKcjb) for [Anonymous Symbol]
    memoryleakdetector.o(.text._ZN18MemoryLeakDetector41reallocateMemoryWithAccountingInformationEP19TestMemoryAllocatorPcjPKcjb) refers to utestplatform.o(.data.PlatformSpecificRealloc) for PlatformSpecificRealloc
    memoryleakdetector.o(.ARM.exidx.text._ZN18MemoryLeakDetector41reallocateMemoryWithAccountingInformationEP19TestMemoryAllocatorPcjPKcjb) refers to memoryleakdetector.o(.text._ZN18MemoryLeakDetector41reallocateMemoryWithAccountingInformationEP19TestMemoryAllocatorPcjPKcjb) for [Anonymous Symbol]
    memoryleakdetector.o(.ARM.exidx.text._ZN18MemoryLeakDetector37createMemoryLeakAccountingInformationEP19TestMemoryAllocatorjPcb) refers to memoryleakdetector.o(.text._ZN18MemoryLeakDetector37createMemoryLeakAccountingInformationEP19TestMemoryAllocatorjPcb) for [Anonymous Symbol]
    memoryleakdetector.o(.text._ZN18MemoryLeakDetector16invalidateMemoryEPc) refers to memoryleakdetector.o(.text._ZN23MemoryLeakDetectorTable12retrieveNodeEPc) for MemoryLeakDetectorTable::retrieveNode(char*)
    memoryleakdetector.o(.text._ZN18MemoryLeakDetector16invalidateMemoryEPc) refers to utestplatform.o(.data.PlatformSpecificMemset) for PlatformSpecificMemset
    memoryleakdetector.o(.ARM.exidx.text._ZN18MemoryLeakDetector16invalidateMemoryEPc) refers to memoryleakdetector.o(.text._ZN18MemoryLeakDetector16invalidateMemoryEPc) for [Anonymous Symbol]
    memoryleakdetector.o(.ARM.exidx.text._ZN18MemoryLeakDetector32validMemoryCorruptionInformationEPc) refers to memoryleakdetector.o(.text._ZN18MemoryLeakDetector32validMemoryCorruptionInformationEPc) for [Anonymous Symbol]
    memoryleakdetector.o(.ARM.exidx.text._ZN18MemoryLeakDetector18matchingAllocationEP19TestMemoryAllocatorS1_) refers to memoryleakdetector.o(.text._ZN18MemoryLeakDetector18matchingAllocationEP19TestMemoryAllocatorS1_) for [Anonymous Symbol]
    memoryleakdetector.o(.text._ZN18MemoryLeakDetector18checkForCorruptionEP22MemoryLeakDetectorNodePKcjP19TestMemoryAllocatorb) refers to memoryleakdetector.o(.text._ZN18MemoryLeakDetector18matchingAllocationEP19TestMemoryAllocatorS1_) for MemoryLeakDetector::matchingAllocation(TestMemoryAllocator*, TestMemoryAllocator*)
    memoryleakdetector.o(.text._ZN18MemoryLeakDetector18checkForCorruptionEP22MemoryLeakDetectorNodePKcjP19TestMemoryAllocatorb) refers to memoryleakdetector.o(.text._ZN18MemoryLeakDetector32validMemoryCorruptionInformationEPc) for MemoryLeakDetector::validMemoryCorruptionInformation(char*)
    memoryleakdetector.o(.text._ZN18MemoryLeakDetector18checkForCorruptionEP22MemoryLeakDetectorNodePKcjP19TestMemoryAllocatorb) refers to memoryleakdetector.o(.text._ZN28MemoryLeakOutputStringBuffer43reportAllocationDeallocationMismatchFailureEP22MemoryLeakDetectorNodePKcjP19TestMemoryAllocatorP17MemoryLeakFailure) for MemoryLeakOutputStringBuffer::reportAllocationDeallocationMismatchFailure(MemoryLeakDetectorNode*, const char*, unsigned, TestMemoryAllocator*, MemoryLeakFailure*)
    memoryleakdetector.o(.text._ZN18MemoryLeakDetector18checkForCorruptionEP22MemoryLeakDetectorNodePKcjP19TestMemoryAllocatorb) refers to memoryleakdetector.o(.text._ZN28MemoryLeakOutputStringBuffer29reportMemoryCorruptionFailureEP22MemoryLeakDetectorNodePKcjP19TestMemoryAllocatorP17MemoryLeakFailure) for MemoryLeakOutputStringBuffer::reportMemoryCorruptionFailure(MemoryLeakDetectorNode*, const char*, unsigned, TestMemoryAllocator*, MemoryLeakFailure*)
    memoryleakdetector.o(.ARM.exidx.text._ZN18MemoryLeakDetector18checkForCorruptionEP22MemoryLeakDetectorNodePKcjP19TestMemoryAllocatorb) refers to memoryleakdetector.o(.text._ZN18MemoryLeakDetector18checkForCorruptionEP22MemoryLeakDetectorNodePKcjP19TestMemoryAllocatorb) for [Anonymous Symbol]
    memoryleakdetector.o(.text._ZN18MemoryLeakDetector11allocMemoryEP19TestMemoryAllocatorjb) refers to memoryleakdetector.o(.text._ZN18MemoryLeakDetector11allocMemoryEP19TestMemoryAllocatorjPKcjb) for MemoryLeakDetector::allocMemory(TestMemoryAllocator*, unsigned, const char*, unsigned, bool)
    memoryleakdetector.o(.text._ZN18MemoryLeakDetector11allocMemoryEP19TestMemoryAllocatorjb) refers to memoryleakdetector.o(.rodata.str1.1) for .L.str.18
    memoryleakdetector.o(.ARM.exidx.text._ZN18MemoryLeakDetector11allocMemoryEP19TestMemoryAllocatorjb) refers to memoryleakdetector.o(.text._ZN18MemoryLeakDetector11allocMemoryEP19TestMemoryAllocatorjb) for [Anonymous Symbol]
    memoryleakdetector.o(.text._ZN18MemoryLeakDetector11allocMemoryEP19TestMemoryAllocatorjPKcjb) refers to memoryleakdetector.o(.text._ZN18MemoryLeakDetector39allocateMemoryWithAccountingInformationEP19TestMemoryAllocatorjPKcjb) for MemoryLeakDetector::allocateMemoryWithAccountingInformation(TestMemoryAllocator*, unsigned, const char*, unsigned, bool)
    memoryleakdetector.o(.text._ZN18MemoryLeakDetector11allocMemoryEP19TestMemoryAllocatorjPKcjb) refers to memoryleakdetector.o(.text._ZN18MemoryLeakDetector20storeLeakInformationEP22MemoryLeakDetectorNodePcjP19TestMemoryAllocatorPKcj) for MemoryLeakDetector::storeLeakInformation(MemoryLeakDetectorNode*, char*, unsigned, TestMemoryAllocator*, const char*, unsigned)
    memoryleakdetector.o(.ARM.exidx.text._ZN18MemoryLeakDetector11allocMemoryEP19TestMemoryAllocatorjPKcjb) refers to memoryleakdetector.o(.text._ZN18MemoryLeakDetector11allocMemoryEP19TestMemoryAllocatorjPKcjb) for [Anonymous Symbol]
    memoryleakdetector.o(.ARM.exidx.text._ZN18MemoryLeakDetector39allocateMemoryWithAccountingInformationEP19TestMemoryAllocatorjPKcjb) refers to memoryleakdetector.o(.text._ZN18MemoryLeakDetector39allocateMemoryWithAccountingInformationEP19TestMemoryAllocatorjPKcjb) for [Anonymous Symbol]
    memoryleakdetector.o(.text._ZN18MemoryLeakDetector101removeMemoryLeakInformationWithoutCheckingOrDeallocatingTheMemoryButDeallocatingTheAccountInformationEP19TestMemoryAllocatorPvb) refers to memoryleakdetector.o(.text._ZN23MemoryLeakDetectorTable10removeNodeEPc) for MemoryLeakDetectorTable::removeNode(char*)
    memoryleakdetector.o(.ARM.exidx.text._ZN18MemoryLeakDetector101removeMemoryLeakInformationWithoutCheckingOrDeallocatingTheMemoryButDeallocatingTheAccountInformationEP19TestMemoryAllocatorPvb) refers to memoryleakdetector.o(.text._ZN18MemoryLeakDetector101removeMemoryLeakInformationWithoutCheckingOrDeallocatingTheMemoryButDeallocatingTheAccountInformationEP19TestMemoryAllocatorPvb) for [Anonymous Symbol]
    memoryleakdetector.o(.text._ZN18MemoryLeakDetector13deallocMemoryEP19TestMemoryAllocatorPvPKcjb) refers to memoryleakdetector.o(.text._ZN23MemoryLeakDetectorTable10removeNodeEPc) for MemoryLeakDetectorTable::removeNode(char*)
    memoryleakdetector.o(.text._ZN18MemoryLeakDetector13deallocMemoryEP19TestMemoryAllocatorPvPKcjb) refers to testmemoryallocator.o(.text._ZN19TestMemoryAllocator16hasBeenDestroyedEv) for TestMemoryAllocator::hasBeenDestroyed()
    memoryleakdetector.o(.text._ZN18MemoryLeakDetector13deallocMemoryEP19TestMemoryAllocatorPvPKcjb) refers to memoryleakdetector.o(.text._ZN28MemoryLeakOutputStringBuffer41reportDeallocateNonAllocatedMemoryFailureEPKcjP19TestMemoryAllocatorP17MemoryLeakFailure) for MemoryLeakOutputStringBuffer::reportDeallocateNonAllocatedMemoryFailure(const char*, unsigned, TestMemoryAllocator*, MemoryLeakFailure*)
    memoryleakdetector.o(.text._ZN18MemoryLeakDetector13deallocMemoryEP19TestMemoryAllocatorPvPKcjb) refers to memoryleakdetector.o(.text._ZN18MemoryLeakDetector18checkForCorruptionEP22MemoryLeakDetectorNodePKcjP19TestMemoryAllocatorb) for MemoryLeakDetector::checkForCorruption(MemoryLeakDetectorNode*, const char*, unsigned, TestMemoryAllocator*, bool)
    memoryleakdetector.o(.ARM.exidx.text._ZN18MemoryLeakDetector13deallocMemoryEP19TestMemoryAllocatorPvPKcjb) refers to memoryleakdetector.o(.text._ZN18MemoryLeakDetector13deallocMemoryEP19TestMemoryAllocatorPvPKcjb) for [Anonymous Symbol]
    memoryleakdetector.o(.text._ZN18MemoryLeakDetector13deallocMemoryEP19TestMemoryAllocatorPvb) refers to memoryleakdetector.o(.text._ZN18MemoryLeakDetector13deallocMemoryEP19TestMemoryAllocatorPvPKcjb) for MemoryLeakDetector::deallocMemory(TestMemoryAllocator*, void*, const char*, unsigned, bool)
    memoryleakdetector.o(.text._ZN18MemoryLeakDetector13deallocMemoryEP19TestMemoryAllocatorPvb) refers to memoryleakdetector.o(.rodata.str1.1) for .L.str.18
    memoryleakdetector.o(.ARM.exidx.text._ZN18MemoryLeakDetector13deallocMemoryEP19TestMemoryAllocatorPvb) refers to memoryleakdetector.o(.text._ZN18MemoryLeakDetector13deallocMemoryEP19TestMemoryAllocatorPvb) for [Anonymous Symbol]
    memoryleakdetector.o(.text._ZN18MemoryLeakDetector40deallocAllMemoryInCurrentAllocationStageEv) refers to memoryleakdetector.o(.text._ZN23MemoryLeakDetectorTable30getFirstLeakForAllocationStageEh) for MemoryLeakDetectorTable::getFirstLeakForAllocationStage(unsigned char)
    memoryleakdetector.o(.text._ZN18MemoryLeakDetector40deallocAllMemoryInCurrentAllocationStageEv) refers to memoryleakdetector.o(.text._ZN23MemoryLeakDetectorTable29getNextLeakForAllocationStageEP22MemoryLeakDetectorNodeh) for MemoryLeakDetectorTable::getNextLeakForAllocationStage(MemoryLeakDetectorNode*, unsigned char)
    memoryleakdetector.o(.text._ZN18MemoryLeakDetector40deallocAllMemoryInCurrentAllocationStageEv) refers to memoryleakdetector.o(.text._ZN18MemoryLeakDetector13deallocMemoryEP19TestMemoryAllocatorPvPKcjb) for MemoryLeakDetector::deallocMemory(TestMemoryAllocator*, void*, const char*, unsigned, bool)
    memoryleakdetector.o(.text._ZN18MemoryLeakDetector40deallocAllMemoryInCurrentAllocationStageEv) refers to memoryleakdetector.o(.rodata.str1.1) for .L.str.22
    memoryleakdetector.o(.ARM.exidx.text._ZN18MemoryLeakDetector40deallocAllMemoryInCurrentAllocationStageEv) refers to memoryleakdetector.o(.text._ZN18MemoryLeakDetector40deallocAllMemoryInCurrentAllocationStageEv) for [Anonymous Symbol]
    memoryleakdetector.o(.text._ZN18MemoryLeakDetector13reallocMemoryEP19TestMemoryAllocatorPcjPKcjb) refers to memoryleakdetector.o(.text._ZN23MemoryLeakDetectorTable10removeNodeEPc) for MemoryLeakDetectorTable::removeNode(char*)
    memoryleakdetector.o(.text._ZN18MemoryLeakDetector13reallocMemoryEP19TestMemoryAllocatorPcjPKcjb) refers to memoryleakdetector.o(.text._ZN18MemoryLeakDetector18checkForCorruptionEP22MemoryLeakDetectorNodePKcjP19TestMemoryAllocatorb) for MemoryLeakDetector::checkForCorruption(MemoryLeakDetectorNode*, const char*, unsigned, TestMemoryAllocator*, bool)
    memoryleakdetector.o(.text._ZN18MemoryLeakDetector13reallocMemoryEP19TestMemoryAllocatorPcjPKcjb) refers to memoryleakdetector.o(.text._ZN18MemoryLeakDetector34reallocateMemoryAndLeakInformationEP19TestMemoryAllocatorPcjPKcjb) for MemoryLeakDetector::reallocateMemoryAndLeakInformation(TestMemoryAllocator*, char*, unsigned, const char*, unsigned, bool)
    memoryleakdetector.o(.text._ZN18MemoryLeakDetector13reallocMemoryEP19TestMemoryAllocatorPcjPKcjb) refers to memoryleakdetector.o(.text._ZN28MemoryLeakOutputStringBuffer41reportDeallocateNonAllocatedMemoryFailureEPKcjP19TestMemoryAllocatorP17MemoryLeakFailure) for MemoryLeakOutputStringBuffer::reportDeallocateNonAllocatedMemoryFailure(const char*, unsigned, TestMemoryAllocator*, MemoryLeakFailure*)
    memoryleakdetector.o(.ARM.exidx.text._ZN18MemoryLeakDetector13reallocMemoryEP19TestMemoryAllocatorPcjPKcjb) refers to memoryleakdetector.o(.text._ZN18MemoryLeakDetector13reallocMemoryEP19TestMemoryAllocatorPcjPKcjb) for [Anonymous Symbol]
    memoryleakdetector.o(.text._ZN18MemoryLeakDetector25ConstructMemoryLeakReportE13MemLeakPeriod) refers to memoryleakdetector.o(.text._ZN23MemoryLeakDetectorTable12getFirstLeakE13MemLeakPeriod) for MemoryLeakDetectorTable::getFirstLeak(MemLeakPeriod)
    memoryleakdetector.o(.text._ZN18MemoryLeakDetector25ConstructMemoryLeakReportE13MemLeakPeriod) refers to memoryleakdetector.o(.text._ZN28MemoryLeakOutputStringBuffer16reportMemoryLeakEP22MemoryLeakDetectorNode) for MemoryLeakOutputStringBuffer::reportMemoryLeak(MemoryLeakDetectorNode*)
    memoryleakdetector.o(.text._ZN18MemoryLeakDetector25ConstructMemoryLeakReportE13MemLeakPeriod) refers to memoryleakdetector.o(.text._ZN23MemoryLeakDetectorTable11getNextLeakEP22MemoryLeakDetectorNode13MemLeakPeriod) for MemoryLeakDetectorTable::getNextLeak(MemoryLeakDetectorNode*, MemLeakPeriod)
    memoryleakdetector.o(.text._ZN18MemoryLeakDetector25ConstructMemoryLeakReportE13MemLeakPeriod) refers to memoryleakdetector.o(.text._ZN28MemoryLeakOutputStringBuffer23stopMemoryLeakReportingEv) for MemoryLeakOutputStringBuffer::stopMemoryLeakReporting()
    memoryleakdetector.o(.ARM.exidx.text._ZN18MemoryLeakDetector25ConstructMemoryLeakReportE13MemLeakPeriod) refers to memoryleakdetector.o(.text._ZN18MemoryLeakDetector25ConstructMemoryLeakReportE13MemLeakPeriod) for [Anonymous Symbol]
    memoryleakdetector.o(.text._ZN18MemoryLeakDetector6reportE13MemLeakPeriod) refers to memoryleakdetector.o(.text._ZN18MemoryLeakDetector25ConstructMemoryLeakReportE13MemLeakPeriod) for MemoryLeakDetector::ConstructMemoryLeakReport(MemLeakPeriod)
    memoryleakdetector.o(.ARM.exidx.text._ZN18MemoryLeakDetector6reportE13MemLeakPeriod) refers to memoryleakdetector.o(.text._ZN18MemoryLeakDetector6reportE13MemLeakPeriod) for [Anonymous Symbol]
    memoryleakdetector.o(.text._ZN18MemoryLeakDetector42markCheckingPeriodLeaksAsNonCheckingPeriodEv) refers to memoryleakdetector.o(.text._ZN23MemoryLeakDetectorTable12getFirstLeakE13MemLeakPeriod) for MemoryLeakDetectorTable::getFirstLeak(MemLeakPeriod)
    memoryleakdetector.o(.text._ZN18MemoryLeakDetector42markCheckingPeriodLeaksAsNonCheckingPeriodEv) refers to memoryleakdetector.o(.text._ZN23MemoryLeakDetectorTable11getNextLeakEP22MemoryLeakDetectorNode13MemLeakPeriod) for MemoryLeakDetectorTable::getNextLeak(MemoryLeakDetectorNode*, MemLeakPeriod)
    memoryleakdetector.o(.ARM.exidx.text._ZN18MemoryLeakDetector42markCheckingPeriodLeaksAsNonCheckingPeriodEv) refers to memoryleakdetector.o(.text._ZN18MemoryLeakDetector42markCheckingPeriodLeaksAsNonCheckingPeriodEv) for [Anonymous Symbol]
    memoryleakdetector.o(.text._ZN18MemoryLeakDetector16totalMemoryLeaksE13MemLeakPeriod) refers to memoryleakdetector.o(.text._ZN23MemoryLeakDetectorTable13getTotalLeaksE13MemLeakPeriod) for MemoryLeakDetectorTable::getTotalLeaks(MemLeakPeriod)
    memoryleakdetector.o(.ARM.exidx.text._ZN18MemoryLeakDetector16totalMemoryLeaksE13MemLeakPeriod) refers to memoryleakdetector.o(.text._ZN18MemoryLeakDetector16totalMemoryLeaksE13MemLeakPeriod) for [Anonymous Symbol]
    memoryleakdetector.o(.rodata._ZTV18MemoryLeakDetector) refers to memoryleakdetector.o(.rodata._ZTI18MemoryLeakDetector) for typeinfo for MemoryLeakDetector
    memoryleakdetector.o(.rodata._ZTV18MemoryLeakDetector) refers to memoryleakdetector.o(.text._ZN18MemoryLeakDetectorD2Ev) for MemoryLeakDetector::~MemoryLeakDetector__sub_object()
    memoryleakdetector.o(.rodata._ZTV18MemoryLeakDetector) refers to memoryleakdetector.o(.text._ZN18MemoryLeakDetectorD0Ev) for MemoryLeakDetector::~MemoryLeakDetector__deallocating()
    memoryleakdetector.o(.rodata._ZTI18MemoryLeakDetector) refers to private_typeinfo.cpp.o(.rodata._ZTVN10__cxxabiv117__class_type_infoE) for vtable for __cxxabiv1::__class_type_info
    memoryleakdetector.o(.rodata._ZTI18MemoryLeakDetector) refers to memoryleakdetector.o(.rodata._ZTS18MemoryLeakDetector) for typeinfo name for MemoryLeakDetector
    simplemutex.o(.text._ZN11SimpleMutexC2Ev) refers to utestplatform.o(.data.PlatformSpecificMutexCreate) for PlatformSpecificMutexCreate
    simplemutex.o(.ARM.exidx.text._ZN11SimpleMutexC2Ev) refers to simplemutex.o(.text._ZN11SimpleMutexC2Ev) for [Anonymous Symbol]
    simplemutex.o(.text._ZN11SimpleMutexD2Ev) refers to utestplatform.o(.data.PlatformSpecificMutexDestroy) for PlatformSpecificMutexDestroy
    simplemutex.o(.ARM.exidx.text._ZN11SimpleMutexD2Ev) refers to simplemutex.o(.text._ZN11SimpleMutexD2Ev) for [Anonymous Symbol]
    simplemutex.o(.text._ZN11SimpleMutex4LockEv) refers to utestplatform.o(.data.PlatformSpecificMutexLock) for PlatformSpecificMutexLock
    simplemutex.o(.ARM.exidx.text._ZN11SimpleMutex4LockEv) refers to simplemutex.o(.text._ZN11SimpleMutex4LockEv) for [Anonymous Symbol]
    simplemutex.o(.text._ZN11SimpleMutex6UnlockEv) refers to utestplatform.o(.data.PlatformSpecificMutexUnlock) for PlatformSpecificMutexUnlock
    simplemutex.o(.ARM.exidx.text._ZN11SimpleMutex6UnlockEv) refers to simplemutex.o(.text._ZN11SimpleMutex6UnlockEv) for [Anonymous Symbol]
    simplemutex.o(.text._ZN15ScopedMutexLockC2EP11SimpleMutex) refers to utestplatform.o(.data.PlatformSpecificMutexLock) for PlatformSpecificMutexLock
    simplemutex.o(.ARM.exidx.text._ZN15ScopedMutexLockC2EP11SimpleMutex) refers to simplemutex.o(.text._ZN15ScopedMutexLockC2EP11SimpleMutex) for [Anonymous Symbol]
    simplemutex.o(.text._ZN15ScopedMutexLockD2Ev) refers to utestplatform.o(.data.PlatformSpecificMutexUnlock) for PlatformSpecificMutexUnlock
    simplemutex.o(.ARM.exidx.text._ZN15ScopedMutexLockD2Ev) refers to simplemutex.o(.text._ZN15ScopedMutexLockD2Ev) for [Anonymous Symbol]
    simplestring.o(.ARM.exidx.text._ZN32GlobalSimpleStringAllocatorStashC2Ev) refers to simplestring.o(.text._ZN32GlobalSimpleStringAllocatorStashC2Ev) for [Anonymous Symbol]
    simplestring.o(.text._ZN32GlobalSimpleStringAllocatorStash4saveEv) refers to simplestring.o(.text._ZN12SimpleString18getStringAllocatorEv) for SimpleString::getStringAllocator()
    simplestring.o(.ARM.exidx.text._ZN32GlobalSimpleStringAllocatorStash4saveEv) refers to simplestring.o(.text._ZN32GlobalSimpleStringAllocatorStash4saveEv) for [Anonymous Symbol]
    simplestring.o(.text._ZN12SimpleString18getStringAllocatorEv) refers to testmemoryallocator.o(.text._Z24defaultNewArrayAllocatorv) for defaultNewArrayAllocator()
    simplestring.o(.text._ZN12SimpleString18getStringAllocatorEv) refers to simplestring.o(.bss._ZN12SimpleString16stringAllocator_E) for SimpleString::stringAllocator_
    simplestring.o(.ARM.exidx.text._ZN12SimpleString18getStringAllocatorEv) refers to simplestring.o(.text._ZN12SimpleString18getStringAllocatorEv) for [Anonymous Symbol]
    simplestring.o(.text._ZN32GlobalSimpleStringAllocatorStash7restoreEv) refers to simplestring.o(.bss._ZN12SimpleString16stringAllocator_E) for SimpleString::stringAllocator_
    simplestring.o(.ARM.exidx.text._ZN32GlobalSimpleStringAllocatorStash7restoreEv) refers to simplestring.o(.text._ZN32GlobalSimpleStringAllocatorStash7restoreEv) for [Anonymous Symbol]
    simplestring.o(.text._ZN12SimpleString18setStringAllocatorEP19TestMemoryAllocator) refers to simplestring.o(.bss._ZN12SimpleString16stringAllocator_E) for SimpleString::stringAllocator_
    simplestring.o(.ARM.exidx.text._ZN12SimpleString18setStringAllocatorEP19TestMemoryAllocator) refers to simplestring.o(.text._ZN12SimpleString18setStringAllocatorEP19TestMemoryAllocator) for [Anonymous Symbol]
    simplestring.o(.text._ZN34GlobalSimpleStringMemoryAccountantC2Ev) refers to memoryleakwarningplugin.o(.text._ZnwjPKci) for operator new(unsigned, const char*, int)
    simplestring.o(.text._ZN34GlobalSimpleStringMemoryAccountantC2Ev) refers to testmemoryallocator.o(.text._ZN16MemoryAccountantC2Ev) for MemoryAccountant::MemoryAccountant()
    simplestring.o(.text._ZN34GlobalSimpleStringMemoryAccountantC2Ev) refers to simplestring.o(.rodata.str1.1) for .L.str
    simplestring.o(.ARM.exidx.text._ZN34GlobalSimpleStringMemoryAccountantC2Ev) refers to simplestring.o(.text._ZN34GlobalSimpleStringMemoryAccountantC2Ev) for [Anonymous Symbol]
    simplestring.o(.text._ZN34GlobalSimpleStringMemoryAccountantD2Ev) refers to simplestring.o(.text._ZN34GlobalSimpleStringMemoryAccountant16restoreAllocatorEv) for GlobalSimpleStringMemoryAccountant::restoreAllocator()
    simplestring.o(.text._ZN34GlobalSimpleStringMemoryAccountantD2Ev) refers to testmemoryallocator.o(.text._ZN16MemoryAccountantD2Ev) for MemoryAccountant::~MemoryAccountant()
    simplestring.o(.text._ZN34GlobalSimpleStringMemoryAccountantD2Ev) refers to memoryleakwarningplugin.o(.text._ZdlPv) for operator delete (void*)
    simplestring.o(.ARM.exidx.text._ZN34GlobalSimpleStringMemoryAccountantD2Ev) refers to simplestring.o(.text._ZN34GlobalSimpleStringMemoryAccountantD2Ev) for [Anonymous Symbol]
    simplestring.o(.text._ZN34GlobalSimpleStringMemoryAccountant16restoreAllocatorEv) refers to simplestring.o(.text._ZN12SimpleString18getStringAllocatorEv) for SimpleString::getStringAllocator()
    simplestring.o(.text._ZN34GlobalSimpleStringMemoryAccountant16restoreAllocatorEv) refers to testmemoryallocator.o(.text._ZN29AccountingTestMemoryAllocator17originalAllocatorEv) for AccountingTestMemoryAllocator::originalAllocator()
    simplestring.o(.text._ZN34GlobalSimpleStringMemoryAccountant16restoreAllocatorEv) refers to simplestring.o(.bss._ZN12SimpleString16stringAllocator_E) for SimpleString::stringAllocator_
    simplestring.o(.ARM.exidx.text._ZN34GlobalSimpleStringMemoryAccountant16restoreAllocatorEv) refers to simplestring.o(.text._ZN34GlobalSimpleStringMemoryAccountant16restoreAllocatorEv) for [Anonymous Symbol]
    simplestring.o(.text._ZN34GlobalSimpleStringMemoryAccountant13useCacheSizesEPjj) refers to testmemoryallocator.o(.text._ZN16MemoryAccountant13useCacheSizesEPjj) for MemoryAccountant::useCacheSizes(unsigned*, unsigned)
    simplestring.o(.ARM.exidx.text._ZN34GlobalSimpleStringMemoryAccountant13useCacheSizesEPjj) refers to simplestring.o(.text._ZN34GlobalSimpleStringMemoryAccountant13useCacheSizesEPjj) for [Anonymous Symbol]
    simplestring.o(.text._ZN34GlobalSimpleStringMemoryAccountant5startEv) refers to memoryleakwarningplugin.o(.text._ZnwjPKci) for operator new(unsigned, const char*, int)
    simplestring.o(.text._ZN34GlobalSimpleStringMemoryAccountant5startEv) refers to simplestring.o(.text._ZN12SimpleString18getStringAllocatorEv) for SimpleString::getStringAllocator()
    simplestring.o(.text._ZN34GlobalSimpleStringMemoryAccountant5startEv) refers to testmemoryallocator.o(.text._ZN29AccountingTestMemoryAllocatorC2ER16MemoryAccountantP19TestMemoryAllocator) for AccountingTestMemoryAllocator::AccountingTestMemoryAllocator(MemoryAccountant&, TestMemoryAllocator*)
    simplestring.o(.text._ZN34GlobalSimpleStringMemoryAccountant5startEv) refers to simplestring.o(.rodata.str1.1) for .L.str
    simplestring.o(.text._ZN34GlobalSimpleStringMemoryAccountant5startEv) refers to simplestring.o(.bss._ZN12SimpleString16stringAllocator_E) for SimpleString::stringAllocator_
    simplestring.o(.ARM.exidx.text._ZN34GlobalSimpleStringMemoryAccountant5startEv) refers to simplestring.o(.text._ZN34GlobalSimpleStringMemoryAccountant5startEv) for [Anonymous Symbol]
    simplestring.o(.text._ZN34GlobalSimpleStringMemoryAccountant4stopEv) refers to utest.o(.text._ZN10UtestShell10getCurrentEv) for UtestShell::getCurrent()
    simplestring.o(.text._ZN34GlobalSimpleStringMemoryAccountant4stopEv) refers to utest.o(.text._ZN10UtestShell24getCurrentTestTerminatorEv) for UtestShell::getCurrentTestTerminator()
    simplestring.o(.text._ZN34GlobalSimpleStringMemoryAccountant4stopEv) refers to simplestring.o(.text._ZN12SimpleString18getStringAllocatorEv) for SimpleString::getStringAllocator()
    simplestring.o(.text._ZN34GlobalSimpleStringMemoryAccountant4stopEv) refers to simplestring.o(.text._ZN34GlobalSimpleStringMemoryAccountant16restoreAllocatorEv) for GlobalSimpleStringMemoryAccountant::restoreAllocator()
    simplestring.o(.text._ZN34GlobalSimpleStringMemoryAccountant4stopEv) refers to simplestring.o(.rodata.str1.1) for .L.str
    simplestring.o(.ARM.exidx.text._ZN34GlobalSimpleStringMemoryAccountant4stopEv) refers to simplestring.o(.text._ZN34GlobalSimpleStringMemoryAccountant4stopEv) for [Anonymous Symbol]
    simplestring.o(.text._ZN34GlobalSimpleStringMemoryAccountant6reportEv) refers to testmemoryallocator.o(.text._ZNK16MemoryAccountant6reportEv) for MemoryAccountant::report() const
    simplestring.o(.ARM.exidx.text._ZN34GlobalSimpleStringMemoryAccountant6reportEv) refers to simplestring.o(.text._ZN34GlobalSimpleStringMemoryAccountant6reportEv) for [Anonymous Symbol]
    simplestring.o(.ARM.exidx.text._ZN34GlobalSimpleStringMemoryAccountant12getAllocatorEv) refers to simplestring.o(.text._ZN34GlobalSimpleStringMemoryAccountant12getAllocatorEv) for [Anonymous Symbol]
    simplestring.o(.text._ZN12SimpleString17allocStringBufferEjPKcj) refers to simplestring.o(.text._ZN12SimpleString18getStringAllocatorEv) for SimpleString::getStringAllocator()
    simplestring.o(.ARM.exidx.text._ZN12SimpleString17allocStringBufferEjPKcj) refers to simplestring.o(.text._ZN12SimpleString17allocStringBufferEjPKcj) for [Anonymous Symbol]
    simplestring.o(.text._ZN12SimpleString19deallocStringBufferEPcjPKcj) refers to simplestring.o(.text._ZN12SimpleString18getStringAllocatorEv) for SimpleString::getStringAllocator()
    simplestring.o(.ARM.exidx.text._ZN12SimpleString19deallocStringBufferEPcjPKcj) refers to simplestring.o(.text._ZN12SimpleString19deallocStringBufferEPcjPKcj) for [Anonymous Symbol]
    simplestring.o(.text._ZNK12SimpleString14getEmptyStringEv) refers to simplestring.o(.text._ZN12SimpleString17allocStringBufferEjPKcj) for SimpleString::allocStringBuffer(unsigned, const char*, unsigned)
    simplestring.o(.text._ZNK12SimpleString14getEmptyStringEv) refers to simplestring.o(.rodata.str1.1) for .L.str
    simplestring.o(.ARM.exidx.text._ZNK12SimpleString14getEmptyStringEv) refers to simplestring.o(.text._ZNK12SimpleString14getEmptyStringEv) for [Anonymous Symbol]
    simplestring.o(.ARM.exidx.text._ZN12SimpleString4AtoUEPKc) refers to simplestring.o(.text._ZN12SimpleString4AtoUEPKc) for [Anonymous Symbol]
    simplestring.o(.ARM.exidx.text._ZN12SimpleString7isSpaceEc) refers to simplestring.o(.text._ZN12SimpleString7isSpaceEc) for [Anonymous Symbol]
    simplestring.o(.ARM.exidx.text._ZN12SimpleString7isDigitEc) refers to simplestring.o(.text._ZN12SimpleString7isDigitEc) for [Anonymous Symbol]
    simplestring.o(.ARM.exidx.text._ZN12SimpleString4AtoIEPKc) refers to simplestring.o(.text._ZN12SimpleString4AtoIEPKc) for [Anonymous Symbol]
    simplestring.o(.ARM.exidx.text._ZN12SimpleString6StrCmpEPKcS1_) refers to simplestring.o(.text._ZN12SimpleString6StrCmpEPKcS1_) for [Anonymous Symbol]
    simplestring.o(.ARM.exidx.text._ZN12SimpleString6StrLenEPKc) refers to simplestring.o(.text._ZN12SimpleString6StrLenEPKc) for [Anonymous Symbol]
    simplestring.o(.ARM.exidx.text._ZN12SimpleString7StrNCmpEPKcS1_j) refers to simplestring.o(.text._ZN12SimpleString7StrNCmpEPKcS1_j) for [Anonymous Symbol]
    simplestring.o(.ARM.exidx.text._ZN12SimpleString7StrNCpyEPcPKcj) refers to simplestring.o(.text._ZN12SimpleString7StrNCpyEPcPKcj) for [Anonymous Symbol]
    simplestring.o(.text._ZN12SimpleString6StrStrEPKcS1_) refers to simplestring.o(.text._ZN12SimpleString6StrLenEPKc) for SimpleString::StrLen(const char*)
    simplestring.o(.text._ZN12SimpleString6StrStrEPKcS1_) refers to simplestring.o(.text._ZN12SimpleString7StrNCmpEPKcS1_j) for SimpleString::StrNCmp(const char*, const char*, unsigned)
    simplestring.o(.ARM.exidx.text._ZN12SimpleString6StrStrEPKcS1_) refers to simplestring.o(.text._ZN12SimpleString6StrStrEPKcS1_) for [Anonymous Symbol]
    simplestring.o(.ARM.exidx.text._ZN12SimpleString7ToLowerEc) refers to simplestring.o(.text._ZN12SimpleString7ToLowerEc) for [Anonymous Symbol]
    simplestring.o(.ARM.exidx.text._ZN12SimpleString7isUpperEc) refers to simplestring.o(.text._ZN12SimpleString7isUpperEc) for [Anonymous Symbol]
    simplestring.o(.ARM.exidx.text._ZN12SimpleString6MemCmpEPKvS1_j) refers to simplestring.o(.text._ZN12SimpleString6MemCmpEPKvS1_j) for [Anonymous Symbol]
    simplestring.o(.text._ZN12SimpleString24deallocateInternalBufferEv) refers to simplestring.o(.text._ZN12SimpleString19deallocStringBufferEPcjPKcj) for SimpleString::deallocStringBuffer(char*, unsigned, const char*, unsigned)
    simplestring.o(.text._ZN12SimpleString24deallocateInternalBufferEv) refers to simplestring.o(.rodata.str1.1) for .L.str
    simplestring.o(.ARM.exidx.text._ZN12SimpleString24deallocateInternalBufferEv) refers to simplestring.o(.text._ZN12SimpleString24deallocateInternalBufferEv) for [Anonymous Symbol]
    simplestring.o(.text._ZN12SimpleString30setInternalBufferAsEmptyStringEv) refers to simplestring.o(.text._ZN12SimpleString24deallocateInternalBufferEv) for SimpleString::deallocateInternalBuffer()
    simplestring.o(.text._ZN12SimpleString30setInternalBufferAsEmptyStringEv) refers to simplestring.o(.text._ZNK12SimpleString14getEmptyStringEv) for SimpleString::getEmptyString() const
    simplestring.o(.ARM.exidx.text._ZN12SimpleString30setInternalBufferAsEmptyStringEv) refers to simplestring.o(.text._ZN12SimpleString30setInternalBufferAsEmptyStringEv) for [Anonymous Symbol]
    simplestring.o(.text._ZN12SimpleString29copyBufferToNewInternalBufferEPKcj) refers to simplestring.o(.text._ZN12SimpleString24deallocateInternalBufferEv) for SimpleString::deallocateInternalBuffer()
    simplestring.o(.text._ZN12SimpleString29copyBufferToNewInternalBufferEPKcj) refers to simplestring.o(.text._ZN12SimpleString15copyToNewBufferEPKcj) for SimpleString::copyToNewBuffer(const char*, unsigned)
    simplestring.o(.ARM.exidx.text._ZN12SimpleString29copyBufferToNewInternalBufferEPKcj) refers to simplestring.o(.text._ZN12SimpleString29copyBufferToNewInternalBufferEPKcj) for [Anonymous Symbol]
    simplestring.o(.text._ZN12SimpleString15copyToNewBufferEPKcj) refers to simplestring.o(.text._ZN12SimpleString17allocStringBufferEjPKcj) for SimpleString::allocStringBuffer(unsigned, const char*, unsigned)
    simplestring.o(.text._ZN12SimpleString15copyToNewBufferEPKcj) refers to simplestring.o(.text._ZN12SimpleString7StrNCpyEPcPKcj) for SimpleString::StrNCpy(char*, const char*, unsigned)
    simplestring.o(.text._ZN12SimpleString15copyToNewBufferEPKcj) refers to simplestring.o(.rodata.str1.1) for .L.str
    simplestring.o(.ARM.exidx.text._ZN12SimpleString15copyToNewBufferEPKcj) refers to simplestring.o(.text._ZN12SimpleString15copyToNewBufferEPKcj) for [Anonymous Symbol]
    simplestring.o(.text._ZN12SimpleString28setInternalBufferToNewBufferEj) refers to simplestring.o(.text._ZN12SimpleString24deallocateInternalBufferEv) for SimpleString::deallocateInternalBuffer()
    simplestring.o(.text._ZN12SimpleString28setInternalBufferToNewBufferEj) refers to simplestring.o(.text._ZN12SimpleString17allocStringBufferEjPKcj) for SimpleString::allocStringBuffer(unsigned, const char*, unsigned)
    simplestring.o(.text._ZN12SimpleString28setInternalBufferToNewBufferEj) refers to simplestring.o(.rodata.str1.1) for .L.str
    simplestring.o(.ARM.exidx.text._ZN12SimpleString28setInternalBufferToNewBufferEj) refers to simplestring.o(.text._ZN12SimpleString28setInternalBufferToNewBufferEj) for [Anonymous Symbol]
    simplestring.o(.text._ZN12SimpleString19setInternalBufferToEPcj) refers to simplestring.o(.text._ZN12SimpleString24deallocateInternalBufferEv) for SimpleString::deallocateInternalBuffer()
    simplestring.o(.ARM.exidx.text._ZN12SimpleString19setInternalBufferToEPcj) refers to simplestring.o(.text._ZN12SimpleString19setInternalBufferToEPcj) for [Anonymous Symbol]
    simplestring.o(.text._ZN12SimpleString29copyBufferToNewInternalBufferERKS_) refers to simplestring.o(.text._ZNK12SimpleString4sizeEv) for SimpleString::size() const
    simplestring.o(.text._ZN12SimpleString29copyBufferToNewInternalBufferERKS_) refers to simplestring.o(.text._ZN12SimpleString29copyBufferToNewInternalBufferEPKcj) for SimpleString::copyBufferToNewInternalBuffer(const char*, unsigned)
    simplestring.o(.ARM.exidx.text._ZN12SimpleString29copyBufferToNewInternalBufferERKS_) refers to simplestring.o(.text._ZN12SimpleString29copyBufferToNewInternalBufferERKS_) for [Anonymous Symbol]
    simplestring.o(.text._ZNK12SimpleString4sizeEv) refers to simplestring.o(.text._ZN12SimpleString6StrLenEPKc) for SimpleString::StrLen(const char*)
    simplestring.o(.ARM.exidx.text._ZNK12SimpleString4sizeEv) refers to simplestring.o(.text._ZNK12SimpleString4sizeEv) for [Anonymous Symbol]
    simplestring.o(.text._ZN12SimpleString29copyBufferToNewInternalBufferEPKc) refers to simplestring.o(.text._ZN12SimpleString6StrLenEPKc) for SimpleString::StrLen(const char*)
    simplestring.o(.text._ZN12SimpleString29copyBufferToNewInternalBufferEPKc) refers to simplestring.o(.text._ZN12SimpleString29copyBufferToNewInternalBufferEPKcj) for SimpleString::copyBufferToNewInternalBuffer(const char*, unsigned)
    simplestring.o(.ARM.exidx.text._ZN12SimpleString29copyBufferToNewInternalBufferEPKc) refers to simplestring.o(.text._ZN12SimpleString29copyBufferToNewInternalBufferEPKc) for [Anonymous Symbol]
    simplestring.o(.ARM.exidx.text._ZNK12SimpleString9getBufferEv) refers to simplestring.o(.text._ZNK12SimpleString9getBufferEv) for [Anonymous Symbol]
    simplestring.o(.text._ZN12SimpleStringC2EPKc) refers to simplestring.o(.text._ZN12SimpleString29copyBufferToNewInternalBufferEPKc) for SimpleString::copyBufferToNewInternalBuffer(const char*)
    simplestring.o(.text._ZN12SimpleStringC2EPKc) refers to simplestring.o(.text._ZN12SimpleString30setInternalBufferAsEmptyStringEv) for SimpleString::setInternalBufferAsEmptyString()
    simplestring.o(.ARM.exidx.text._ZN12SimpleStringC2EPKc) refers to simplestring.o(.text._ZN12SimpleStringC2EPKc) for [Anonymous Symbol]
    simplestring.o(.text._ZN12SimpleStringC2EPKcj) refers to simplestring.o(.text._ZN12SimpleString6StrLenEPKc) for SimpleString::StrLen(const char*)
    simplestring.o(.text._ZN12SimpleStringC2EPKcj) refers to simplestring.o(.text._ZN12SimpleString28setInternalBufferToNewBufferEj) for SimpleString::setInternalBufferToNewBuffer(unsigned)
    simplestring.o(.text._ZN12SimpleStringC2EPKcj) refers to simplestring.o(.text._ZN12SimpleString7StrNCpyEPcPKcj) for SimpleString::StrNCpy(char*, const char*, unsigned)
    simplestring.o(.ARM.exidx.text._ZN12SimpleStringC2EPKcj) refers to simplestring.o(.text._ZN12SimpleStringC2EPKcj) for [Anonymous Symbol]
    simplestring.o(.text._ZN12SimpleStringC2ERKS_) refers to simplestring.o(.text._ZN12SimpleString29copyBufferToNewInternalBufferEPKc) for SimpleString::copyBufferToNewInternalBuffer(const char*)
    simplestring.o(.ARM.exidx.text._ZN12SimpleStringC2ERKS_) refers to simplestring.o(.text._ZN12SimpleStringC2ERKS_) for [Anonymous Symbol]
    simplestring.o(.text._ZN12SimpleStringaSERKS_) refers to simplestring.o(.text._ZN12SimpleString29copyBufferToNewInternalBufferERKS_) for SimpleString::copyBufferToNewInternalBuffer(const SimpleString&)
    simplestring.o(.ARM.exidx.text._ZN12SimpleStringaSERKS_) refers to simplestring.o(.text._ZN12SimpleStringaSERKS_) for [Anonymous Symbol]
    simplestring.o(.text._ZNK12SimpleString8containsERKS_) refers to simplestring.o(.text._ZN12SimpleString6StrStrEPKcS1_) for SimpleString::StrStr(const char*, const char*)
    simplestring.o(.ARM.exidx.text._ZNK12SimpleString8containsERKS_) refers to simplestring.o(.text._ZNK12SimpleString8containsERKS_) for [Anonymous Symbol]
    simplestring.o(.text._ZNK12SimpleString14containsNoCaseERKS_) refers to simplestring.o(.text._ZNK12SimpleString9lowerCaseEv) for SimpleString::lowerCase() const
    simplestring.o(.text._ZNK12SimpleString14containsNoCaseERKS_) refers to simplestring.o(.text._ZNK12SimpleString8containsERKS_) for SimpleString::contains(const SimpleString&) const
    simplestring.o(.text._ZNK12SimpleString14containsNoCaseERKS_) refers to simplestring.o(.text._ZN12SimpleString24deallocateInternalBufferEv) for SimpleString::deallocateInternalBuffer()
    simplestring.o(.ARM.exidx.text._ZNK12SimpleString14containsNoCaseERKS_) refers to simplestring.o(.text._ZNK12SimpleString14containsNoCaseERKS_) for [Anonymous Symbol]
    simplestring.o(.text._ZNK12SimpleString9lowerCaseEv) refers to simplestring.o(.text._ZN12SimpleStringC2ERKS_) for SimpleString::SimpleString__sub_object(const SimpleString&)
    simplestring.o(.text._ZNK12SimpleString9lowerCaseEv) refers to simplestring.o(.text._ZNK12SimpleString4sizeEv) for SimpleString::size() const
    simplestring.o(.ARM.exidx.text._ZNK12SimpleString9lowerCaseEv) refers to simplestring.o(.text._ZNK12SimpleString9lowerCaseEv) for [Anonymous Symbol]
    simplestring.o(.text._ZNK12SimpleString10startsWithERKS_) refers to simplestring.o(.text._ZNK12SimpleString4sizeEv) for SimpleString::size() const
    simplestring.o(.text._ZNK12SimpleString10startsWithERKS_) refers to simplestring.o(.text._ZN12SimpleString6StrStrEPKcS1_) for SimpleString::StrStr(const char*, const char*)
    simplestring.o(.ARM.exidx.text._ZNK12SimpleString10startsWithERKS_) refers to simplestring.o(.text._ZNK12SimpleString10startsWithERKS_) for [Anonymous Symbol]
    simplestring.o(.text._ZNK12SimpleString8endsWithERKS_) refers to simplestring.o(.text._ZNK12SimpleString4sizeEv) for SimpleString::size() const
    simplestring.o(.text._ZNK12SimpleString8endsWithERKS_) refers to simplestring.o(.text._ZN12SimpleString6StrCmpEPKcS1_) for SimpleString::StrCmp(const char*, const char*)
    simplestring.o(.ARM.exidx.text._ZNK12SimpleString8endsWithERKS_) refers to simplestring.o(.text._ZNK12SimpleString8endsWithERKS_) for [Anonymous Symbol]
    simplestring.o(.text._ZNK12SimpleString5countERKS_) refers to simplestring.o(.text._ZN12SimpleString6StrStrEPKcS1_) for SimpleString::StrStr(const char*, const char*)
    simplestring.o(.ARM.exidx.text._ZNK12SimpleString5countERKS_) refers to simplestring.o(.text._ZNK12SimpleString5countERKS_) for [Anonymous Symbol]
    simplestring.o(.text._ZNK12SimpleString5splitERKS_R22SimpleStringCollection) refers to simplestring.o(.text._ZNK12SimpleString5countERKS_) for SimpleString::count(const SimpleString&) const
    simplestring.o(.text._ZNK12SimpleString5splitERKS_R22SimpleStringCollection) refers to simplestring.o(.text._ZNK12SimpleString8endsWithERKS_) for SimpleString::endsWith(const SimpleString&) const
    simplestring.o(.text._ZNK12SimpleString5splitERKS_R22SimpleStringCollection) refers to simplestring.o(.text._ZN22SimpleStringCollection8allocateEj) for SimpleStringCollection::allocate(unsigned)
    simplestring.o(.text._ZNK12SimpleString5splitERKS_R22SimpleStringCollection) refers to simplestring.o(.text._ZN12SimpleString6StrStrEPKcS1_) for SimpleString::StrStr(const char*, const char*)
    simplestring.o(.text._ZNK12SimpleString5splitERKS_R22SimpleStringCollection) refers to simplestring.o(.text._ZN12SimpleStringC2EPKc) for SimpleString::SimpleString__sub_object(const char*)
    simplestring.o(.text._ZNK12SimpleString5splitERKS_R22SimpleStringCollection) refers to simplestring.o(.text._ZNK12SimpleString9subStringEjj) for SimpleString::subString(unsigned, unsigned) const
    simplestring.o(.text._ZNK12SimpleString5splitERKS_R22SimpleStringCollection) refers to simplestring.o(.text._ZN22SimpleStringCollectionixEj) for SimpleStringCollection::operator [](unsigned)
    simplestring.o(.text._ZNK12SimpleString5splitERKS_R22SimpleStringCollection) refers to simplestring.o(.text._ZN12SimpleStringaSERKS_) for SimpleString::operator =(const SimpleString&)
    simplestring.o(.text._ZNK12SimpleString5splitERKS_R22SimpleStringCollection) refers to simplestring.o(.text._ZN12SimpleString24deallocateInternalBufferEv) for SimpleString::deallocateInternalBuffer()
    simplestring.o(.ARM.exidx.text._ZNK12SimpleString5splitERKS_R22SimpleStringCollection) refers to simplestring.o(.text._ZNK12SimpleString5splitERKS_R22SimpleStringCollection) for [Anonymous Symbol]
    simplestring.o(.text._ZN22SimpleStringCollection8allocateEj) refers to simplestring.o(.text._ZN12SimpleString24deallocateInternalBufferEv) for SimpleString::deallocateInternalBuffer()
    simplestring.o(.text._ZN22SimpleStringCollection8allocateEj) refers to memoryleakwarningplugin.o(.text._ZdaPv) for operator delete[] (void*)
    simplestring.o(.text._ZN22SimpleStringCollection8allocateEj) refers to memoryleakwarningplugin.o(.text._ZnajPKci) for operator new[] (unsigned, const char*, int)
    simplestring.o(.text._ZN22SimpleStringCollection8allocateEj) refers to simplestring.o(.text._ZN12SimpleStringC2EPKc) for SimpleString::SimpleString__sub_object(const char*)
    simplestring.o(.text._ZN22SimpleStringCollection8allocateEj) refers to simplestring.o(.rodata.str1.1) for .L.str
    simplestring.o(.ARM.exidx.text._ZN22SimpleStringCollection8allocateEj) refers to simplestring.o(.text._ZN22SimpleStringCollection8allocateEj) for [Anonymous Symbol]
    simplestring.o(.text._ZNK12SimpleString9subStringEjj) refers to simplestring.o(.text._ZNK12SimpleString4sizeEv) for SimpleString::size() const
    simplestring.o(.text._ZNK12SimpleString9subStringEjj) refers to simplestring.o(.text._ZN12SimpleStringC2EPKc) for SimpleString::SimpleString__sub_object(const char*)
    simplestring.o(.text._ZNK12SimpleString9subStringEjj) refers to simplestring.o(.text._ZN12SimpleString6StrLenEPKc) for SimpleString::StrLen(const char*)
    simplestring.o(.text._ZNK12SimpleString9subStringEjj) refers to simplestring.o(.text._ZN12SimpleStringC2ERKS_) for SimpleString::SimpleString__sub_object(const SimpleString&)
    simplestring.o(.text._ZNK12SimpleString9subStringEjj) refers to simplestring.o(.text._ZN12SimpleString24deallocateInternalBufferEv) for SimpleString::deallocateInternalBuffer()
    simplestring.o(.text._ZNK12SimpleString9subStringEjj) refers to simplestring.o(.rodata.str1.1) for .L.str.10
    simplestring.o(.ARM.exidx.text._ZNK12SimpleString9subStringEjj) refers to simplestring.o(.text._ZNK12SimpleString9subStringEjj) for [Anonymous Symbol]
    simplestring.o(.text._ZN22SimpleStringCollectionixEj) refers to simplestring.o(.text._ZN12SimpleStringC2EPKc) for SimpleString::SimpleString__sub_object(const char*)
    simplestring.o(.text._ZN22SimpleStringCollectionixEj) refers to simplestring.o(.text._ZN12SimpleStringaSERKS_) for SimpleString::operator =(const SimpleString&)
    simplestring.o(.text._ZN22SimpleStringCollectionixEj) refers to simplestring.o(.text._ZN12SimpleString24deallocateInternalBufferEv) for SimpleString::deallocateInternalBuffer()
    simplestring.o(.text._ZN22SimpleStringCollectionixEj) refers to simplestring.o(.rodata.str1.1) for .L.str.10
    simplestring.o(.ARM.exidx.text._ZN22SimpleStringCollectionixEj) refers to simplestring.o(.text._ZN22SimpleStringCollectionixEj) for [Anonymous Symbol]
    simplestring.o(.text._ZN12SimpleString7replaceEcc) refers to simplestring.o(.text._ZNK12SimpleString4sizeEv) for SimpleString::size() const
    simplestring.o(.ARM.exidx.text._ZN12SimpleString7replaceEcc) refers to simplestring.o(.text._ZN12SimpleString7replaceEcc) for [Anonymous Symbol]
    simplestring.o(.text._ZN12SimpleString7replaceEPKcS1_) refers to simplestring.o(.text._ZN12SimpleStringC2EPKc) for SimpleString::SimpleString__sub_object(const char*)
    simplestring.o(.text._ZN12SimpleString7replaceEPKcS1_) refers to simplestring.o(.text._ZNK12SimpleString5countERKS_) for SimpleString::count(const SimpleString&) const
    simplestring.o(.text._ZN12SimpleString7replaceEPKcS1_) refers to simplestring.o(.text._ZN12SimpleString24deallocateInternalBufferEv) for SimpleString::deallocateInternalBuffer()
    simplestring.o(.text._ZN12SimpleString7replaceEPKcS1_) refers to simplestring.o(.text._ZNK12SimpleString4sizeEv) for SimpleString::size() const
    simplestring.o(.text._ZN12SimpleString7replaceEPKcS1_) refers to simplestring.o(.text._ZN12SimpleString6StrLenEPKc) for SimpleString::StrLen(const char*)
    simplestring.o(.text._ZN12SimpleString7replaceEPKcS1_) refers to simplestring.o(.text._ZN12SimpleString17allocStringBufferEjPKcj) for SimpleString::allocStringBuffer(unsigned, const char*, unsigned)
    simplestring.o(.text._ZN12SimpleString7replaceEPKcS1_) refers to simplestring.o(.text._ZN12SimpleString7StrNCmpEPKcS1_j) for SimpleString::StrNCmp(const char*, const char*, unsigned)
    simplestring.o(.text._ZN12SimpleString7replaceEPKcS1_) refers to simplestring.o(.text._ZN12SimpleString7StrNCpyEPcPKcj) for SimpleString::StrNCpy(char*, const char*, unsigned)
    simplestring.o(.text._ZN12SimpleString7replaceEPKcS1_) refers to simplestring.o(.text._ZN12SimpleString30setInternalBufferAsEmptyStringEv) for SimpleString::setInternalBufferAsEmptyString()
    simplestring.o(.text._ZN12SimpleString7replaceEPKcS1_) refers to simplestring.o(.rodata.str1.1) for .L.str
    simplestring.o(.ARM.exidx.text._ZN12SimpleString7replaceEPKcS1_) refers to simplestring.o(.text._ZN12SimpleString7replaceEPKcS1_) for [Anonymous Symbol]
    simplestring.o(.text._ZNK12SimpleString9printableEv) refers to simplestring.o(.text._ZN12SimpleStringC2EPKc) for SimpleString::SimpleString__sub_object(const char*)
    simplestring.o(.text._ZNK12SimpleString9printableEv) refers to simplestring.o(.text._ZNK12SimpleString16getPrintableSizeEv) for SimpleString::getPrintableSize() const
    simplestring.o(.text._ZNK12SimpleString9printableEv) refers to simplestring.o(.text._ZN12SimpleString28setInternalBufferToNewBufferEj) for SimpleString::setInternalBufferToNewBuffer(unsigned)
    simplestring.o(.text._ZNK12SimpleString9printableEv) refers to simplestring.o(.text._ZNK12SimpleString4sizeEv) for SimpleString::size() const
    simplestring.o(.text._ZNK12SimpleString9printableEv) refers to simplestring.o(.text._ZN12SimpleString7StrNCpyEPcPKcj) for SimpleString::StrNCpy(char*, const char*, unsigned)
    simplestring.o(.text._ZNK12SimpleString9printableEv) refers to simplestring.o(.text._Z16StringFromFormatPKcz) for StringFromFormat(const char*, ...)
    simplestring.o(.text._ZNK12SimpleString9printableEv) refers to simplestring.o(.text._ZN12SimpleString24deallocateInternalBufferEv) for SimpleString::deallocateInternalBuffer()
    simplestring.o(.text._ZNK12SimpleString9printableEv) refers to simplestring.o(.rodata.str1.1) for .L.str.10
    simplestring.o(.ARM.exidx.text._ZNK12SimpleString9printableEv) refers to simplestring.o(.text._ZNK12SimpleString9printableEv) for [Anonymous Symbol]
    simplestring.o(.text._ZNK12SimpleString16getPrintableSizeEv) refers to simplestring.o(.text._ZNK12SimpleString4sizeEv) for SimpleString::size() const
    simplestring.o(.ARM.exidx.text._ZNK12SimpleString16getPrintableSizeEv) refers to simplestring.o(.text._ZNK12SimpleString16getPrintableSizeEv) for [Anonymous Symbol]
    simplestring.o(.ARM.exidx.text._ZN12SimpleString32isControlWithShortEscapeSequenceEc) refers to simplestring.o(.text._ZN12SimpleString32isControlWithShortEscapeSequenceEc) for [Anonymous Symbol]
    simplestring.o(.ARM.exidx.text._ZN12SimpleString9isControlEc) refers to simplestring.o(.text._ZN12SimpleString9isControlEc) for [Anonymous Symbol]
    simplestring.o(.text._Z16StringFromFormatPKcz) refers to simplestring.o(.text._ZN12SimpleStringC2EPKc) for SimpleString::SimpleString__sub_object(const char*)
    simplestring.o(.text._Z16StringFromFormatPKcz) refers to simplestring.o(.text._Z17VStringFromFormatPKcSt9__va_list) for VStringFromFormat(const char*, std::__va_list)
    simplestring.o(.text._Z16StringFromFormatPKcz) refers to simplestring.o(.text._ZN12SimpleStringaSERKS_) for SimpleString::operator =(const SimpleString&)
    simplestring.o(.text._Z16StringFromFormatPKcz) refers to simplestring.o(.text._ZN12SimpleString24deallocateInternalBufferEv) for SimpleString::deallocateInternalBuffer()
    simplestring.o(.text._Z16StringFromFormatPKcz) refers to simplestring.o(.rodata.str1.1) for .L.str.10
    simplestring.o(.ARM.exidx.text._Z16StringFromFormatPKcz) refers to simplestring.o(.text._Z16StringFromFormatPKcz) for [Anonymous Symbol]
    simplestring.o(.ARM.exidx.text._ZNK12SimpleString12asCharStringEv) refers to simplestring.o(.text._ZNK12SimpleString12asCharStringEv) for [Anonymous Symbol]
    simplestring.o(.text._ZNK12SimpleString7isEmptyEv) refers to simplestring.o(.text._ZNK12SimpleString4sizeEv) for SimpleString::size() const
    simplestring.o(.ARM.exidx.text._ZNK12SimpleString7isEmptyEv) refers to simplestring.o(.text._ZNK12SimpleString7isEmptyEv) for [Anonymous Symbol]
    simplestring.o(.text._ZN12SimpleStringD2Ev) refers to simplestring.o(.text._ZN12SimpleString24deallocateInternalBufferEv) for SimpleString::deallocateInternalBuffer()
    simplestring.o(.ARM.exidx.text._ZN12SimpleStringD2Ev) refers to simplestring.o(.text._ZN12SimpleStringD2Ev) for [Anonymous Symbol]
    simplestring.o(.text._ZeqRK12SimpleStringS1_) refers to simplestring.o(.text._ZN12SimpleString6StrCmpEPKcS1_) for SimpleString::StrCmp(const char*, const char*)
    simplestring.o(.ARM.exidx.text._ZeqRK12SimpleStringS1_) refers to simplestring.o(.text._ZeqRK12SimpleStringS1_) for [Anonymous Symbol]
    simplestring.o(.text._ZNK12SimpleString12equalsNoCaseERKS_) refers to simplestring.o(.text._ZNK12SimpleString9lowerCaseEv) for SimpleString::lowerCase() const
    simplestring.o(.text._ZNK12SimpleString12equalsNoCaseERKS_) refers to simplestring.o(.text._ZeqRK12SimpleStringS1_) for operator ==(const SimpleString&, const SimpleString&)
    simplestring.o(.text._ZNK12SimpleString12equalsNoCaseERKS_) refers to simplestring.o(.text._ZN12SimpleString24deallocateInternalBufferEv) for SimpleString::deallocateInternalBuffer()
    simplestring.o(.ARM.exidx.text._ZNK12SimpleString12equalsNoCaseERKS_) refers to simplestring.o(.text._ZNK12SimpleString12equalsNoCaseERKS_) for [Anonymous Symbol]
    simplestring.o(.text._ZneRK12SimpleStringS1_) refers to simplestring.o(.text._ZeqRK12SimpleStringS1_) for operator ==(const SimpleString&, const SimpleString&)
    simplestring.o(.ARM.exidx.text._ZneRK12SimpleStringS1_) refers to simplestring.o(.text._ZneRK12SimpleStringS1_) for [Anonymous Symbol]
    simplestring.o(.text._ZNK12SimpleStringplERKS_) refers to simplestring.o(.text._ZN12SimpleStringC2EPKc) for SimpleString::SimpleString__sub_object(const char*)
    simplestring.o(.text._ZNK12SimpleStringplERKS_) refers to simplestring.o(.text._ZN12SimpleStringpLEPKc) for SimpleString::operator +=(const char*)
    simplestring.o(.ARM.exidx.text._ZNK12SimpleStringplERKS_) refers to simplestring.o(.text._ZNK12SimpleStringplERKS_) for [Anonymous Symbol]
    simplestring.o(.text._ZN12SimpleStringpLEPKc) refers to simplestring.o(.text._ZNK12SimpleString4sizeEv) for SimpleString::size() const
    simplestring.o(.text._ZN12SimpleStringpLEPKc) refers to simplestring.o(.text._ZN12SimpleString6StrLenEPKc) for SimpleString::StrLen(const char*)
    simplestring.o(.text._ZN12SimpleStringpLEPKc) refers to simplestring.o(.text._ZN12SimpleString15copyToNewBufferEPKcj) for SimpleString::copyToNewBuffer(const char*, unsigned)
    simplestring.o(.text._ZN12SimpleStringpLEPKc) refers to simplestring.o(.text._ZN12SimpleString7StrNCpyEPcPKcj) for SimpleString::StrNCpy(char*, const char*, unsigned)
    simplestring.o(.text._ZN12SimpleStringpLEPKc) refers to simplestring.o(.text._ZN12SimpleString24deallocateInternalBufferEv) for SimpleString::deallocateInternalBuffer()
    simplestring.o(.ARM.exidx.text._ZN12SimpleStringpLEPKc) refers to simplestring.o(.text._ZN12SimpleStringpLEPKc) for [Anonymous Symbol]
    simplestring.o(.text._ZN12SimpleStringpLERKS_) refers to simplestring.o(.text._ZN12SimpleStringpLEPKc) for SimpleString::operator +=(const char*)
    simplestring.o(.ARM.exidx.text._ZN12SimpleStringpLERKS_) refers to simplestring.o(.text._ZN12SimpleStringpLERKS_) for [Anonymous Symbol]
    simplestring.o(.text._ZN12SimpleString22padStringsToSameLengthERS_S0_c) refers to simplestring.o(.text._ZNK12SimpleString4sizeEv) for SimpleString::size() const
    simplestring.o(.text._ZN12SimpleString22padStringsToSameLengthERS_S0_c) refers to simplestring.o(.text._ZN12SimpleStringC2EPKcj) for SimpleString::SimpleString__sub_object(const char*, unsigned)
    simplestring.o(.text._ZN12SimpleString22padStringsToSameLengthERS_S0_c) refers to simplestring.o(.text._ZNK12SimpleStringplERKS_) for SimpleString::operator +(const SimpleString&) const
    simplestring.o(.text._ZN12SimpleString22padStringsToSameLengthERS_S0_c) refers to simplestring.o(.text._ZN12SimpleStringaSERKS_) for SimpleString::operator =(const SimpleString&)
    simplestring.o(.text._ZN12SimpleString22padStringsToSameLengthERS_S0_c) refers to simplestring.o(.text._ZN12SimpleString24deallocateInternalBufferEv) for SimpleString::deallocateInternalBuffer()
    simplestring.o(.ARM.exidx.text._ZN12SimpleString22padStringsToSameLengthERS_S0_c) refers to simplestring.o(.text._ZN12SimpleString22padStringsToSameLengthERS_S0_c) for [Anonymous Symbol]
    simplestring.o(.text._ZNK12SimpleString9subStringEj) refers to simplestring.o(.text._ZNK12SimpleString9subStringEjj) for SimpleString::subString(unsigned, unsigned) const
    simplestring.o(.ARM.exidx.text._ZNK12SimpleString9subStringEj) refers to simplestring.o(.text._ZNK12SimpleString9subStringEj) for [Anonymous Symbol]
    simplestring.o(.ARM.exidx.text._ZNK12SimpleString2atEj) refers to simplestring.o(.text._ZNK12SimpleString2atEj) for [Anonymous Symbol]
    simplestring.o(.text._ZNK12SimpleString4findEc) refers to simplestring.o(.text._ZNK12SimpleString8findFromEjc) for SimpleString::findFrom(unsigned, char) const
    simplestring.o(.ARM.exidx.text._ZNK12SimpleString4findEc) refers to simplestring.o(.text._ZNK12SimpleString4findEc) for [Anonymous Symbol]
    simplestring.o(.text._ZNK12SimpleString8findFromEjc) refers to simplestring.o(.text._ZNK12SimpleString4sizeEv) for SimpleString::size() const
    simplestring.o(.ARM.exidx.text._ZNK12SimpleString8findFromEjc) refers to simplestring.o(.text._ZNK12SimpleString8findFromEjc) for [Anonymous Symbol]
    simplestring.o(.text._ZNK12SimpleString17subStringFromTillEcc) refers to simplestring.o(.text._ZNK12SimpleString4findEc) for SimpleString::find(char) const
    simplestring.o(.text._ZNK12SimpleString17subStringFromTillEcc) refers to simplestring.o(.text._ZNK12SimpleString8findFromEjc) for SimpleString::findFrom(unsigned, char) const
    simplestring.o(.text._ZNK12SimpleString17subStringFromTillEcc) refers to simplestring.o(.text._ZNK12SimpleString9subStringEjj) for SimpleString::subString(unsigned, unsigned) const
    simplestring.o(.text._ZNK12SimpleString17subStringFromTillEcc) refers to simplestring.o(.text._ZN12SimpleStringC2EPKc) for SimpleString::SimpleString__sub_object(const char*)
    simplestring.o(.text._ZNK12SimpleString17subStringFromTillEcc) refers to simplestring.o(.text._ZNK12SimpleString9subStringEj) for SimpleString::subString(unsigned) const
    simplestring.o(.text._ZNK12SimpleString17subStringFromTillEcc) refers to simplestring.o(.rodata.str1.1) for .L.str.10
    simplestring.o(.ARM.exidx.text._ZNK12SimpleString17subStringFromTillEcc) refers to simplestring.o(.text._ZNK12SimpleString17subStringFromTillEcc) for [Anonymous Symbol]
    simplestring.o(.text._ZNK12SimpleString12copyToBufferEPcj) refers to simplestring.o(.text._ZNK12SimpleString4sizeEv) for SimpleString::size() const
    simplestring.o(.text._ZNK12SimpleString12copyToBufferEPcj) refers to simplestring.o(.text._ZN12SimpleString7StrNCpyEPcPKcj) for SimpleString::StrNCpy(char*, const char*, unsigned)
    simplestring.o(.ARM.exidx.text._ZNK12SimpleString12copyToBufferEPcj) refers to simplestring.o(.text._ZNK12SimpleString12copyToBufferEPcj) for [Anonymous Symbol]
    simplestring.o(.text._Z10StringFromb) refers to simplestring.o(.text._Z16StringFromFormatPKcz) for StringFromFormat(const char*, ...)
    simplestring.o(.ARM.exidx.text._Z10StringFromb) refers to simplestring.o(.text._Z10StringFromb) for [Anonymous Symbol]
    simplestring.o(.text._Z10StringFromPKc) refers to simplestring.o(.text._ZN12SimpleStringC2EPKc) for SimpleString::SimpleString__sub_object(const char*)
    simplestring.o(.ARM.exidx.text._Z10StringFromPKc) refers to simplestring.o(.text._Z10StringFromPKc) for [Anonymous Symbol]
    simplestring.o(.text._Z16StringFromOrNullPKc) refers to simplestring.o(.text._ZN12SimpleStringC2EPKc) for SimpleString::SimpleString__sub_object(const char*)
    simplestring.o(.text._Z16StringFromOrNullPKc) refers to simplestring.o(.rodata.str1.1) for .L.str.15
    simplestring.o(.ARM.exidx.text._Z16StringFromOrNullPKc) refers to simplestring.o(.text._Z16StringFromOrNullPKc) for [Anonymous Symbol]
    simplestring.o(.text._Z25PrintableStringFromOrNullPKc) refers to simplestring.o(.text._ZN12SimpleStringC2EPKc) for SimpleString::SimpleString__sub_object(const char*)
    simplestring.o(.text._Z25PrintableStringFromOrNullPKc) refers to simplestring.o(.text._ZNK12SimpleString9printableEv) for SimpleString::printable() const
    simplestring.o(.text._Z25PrintableStringFromOrNullPKc) refers to simplestring.o(.text._ZN12SimpleString24deallocateInternalBufferEv) for SimpleString::deallocateInternalBuffer()
    simplestring.o(.text._Z25PrintableStringFromOrNullPKc) refers to simplestring.o(.rodata.str1.1) for .L.str.15
    simplestring.o(.ARM.exidx.text._Z25PrintableStringFromOrNullPKc) refers to simplestring.o(.text._Z25PrintableStringFromOrNullPKc) for [Anonymous Symbol]
    simplestring.o(.text._Z10StringFromi) refers to simplestring.o(.text._Z16StringFromFormatPKcz) for StringFromFormat(const char*, ...)
    simplestring.o(.ARM.exidx.text._Z10StringFromi) refers to simplestring.o(.text._Z10StringFromi) for [Anonymous Symbol]
    simplestring.o(.text._Z10StringFroml) refers to simplestring.o(.text._Z16StringFromFormatPKcz) for StringFromFormat(const char*, ...)
    simplestring.o(.ARM.exidx.text._Z10StringFroml) refers to simplestring.o(.text._Z10StringFroml) for [Anonymous Symbol]
    simplestring.o(.text._Z10StringFromPKv) refers to simplestring.o(.text._ZN12SimpleStringC2EPKc) for SimpleString::SimpleString__sub_object(const char*)
    simplestring.o(.text._Z10StringFromPKv) refers to simplestring.o(.text._Z13HexStringFromPKv) for HexStringFrom(const void*)
    simplestring.o(.text._Z10StringFromPKv) refers to simplestring.o(.text._ZNK12SimpleStringplERKS_) for SimpleString::operator +(const SimpleString&) const
    simplestring.o(.text._Z10StringFromPKv) refers to simplestring.o(.text._ZN12SimpleString24deallocateInternalBufferEv) for SimpleString::deallocateInternalBuffer()
    simplestring.o(.text._Z10StringFromPKv) refers to simplestring.o(.rodata.str1.1) for .L.str.18
    simplestring.o(.ARM.exidx.text._Z10StringFromPKv) refers to simplestring.o(.text._Z10StringFromPKv) for [Anonymous Symbol]
    simplestring.o(.text._Z13HexStringFromPKv) refers to simplestring.o(.text._Z13HexStringFromy) for HexStringFrom(unsigned long long)
    simplestring.o(.ARM.exidx.text._Z13HexStringFromPKv) refers to simplestring.o(.text._Z13HexStringFromPKv) for [Anonymous Symbol]
    simplestring.o(.text._Z10StringFromPFvvE) refers to simplestring.o(.text._ZN12SimpleStringC2EPKc) for SimpleString::SimpleString__sub_object(const char*)
    simplestring.o(.text._Z10StringFromPFvvE) refers to simplestring.o(.text._Z13HexStringFromPFvvE) for HexStringFrom(void(*)())
    simplestring.o(.text._Z10StringFromPFvvE) refers to simplestring.o(.text._ZNK12SimpleStringplERKS_) for SimpleString::operator +(const SimpleString&) const
    simplestring.o(.text._Z10StringFromPFvvE) refers to simplestring.o(.text._ZN12SimpleString24deallocateInternalBufferEv) for SimpleString::deallocateInternalBuffer()
    simplestring.o(.text._Z10StringFromPFvvE) refers to simplestring.o(.rodata.str1.1) for .L.str.18
    simplestring.o(.ARM.exidx.text._Z10StringFromPFvvE) refers to simplestring.o(.text._Z10StringFromPFvvE) for [Anonymous Symbol]
    simplestring.o(.text._Z13HexStringFromPFvvE) refers to simplestring.o(.text._Z13HexStringFromy) for HexStringFrom(unsigned long long)
    simplestring.o(.ARM.exidx.text._Z13HexStringFromPFvvE) refers to simplestring.o(.text._Z13HexStringFromPFvvE) for [Anonymous Symbol]
    simplestring.o(.text._Z13HexStringFroml) refers to simplestring.o(.text._Z16StringFromFormatPKcz) for StringFromFormat(const char*, ...)
    simplestring.o(.text._Z13HexStringFroml) refers to simplestring.o(.rodata.str1.1) for .L.str.19
    simplestring.o(.ARM.exidx.text._Z13HexStringFroml) refers to simplestring.o(.text._Z13HexStringFroml) for [Anonymous Symbol]
    simplestring.o(.text._Z13HexStringFromi) refers to simplestring.o(.text._Z16StringFromFormatPKcz) for StringFromFormat(const char*, ...)
    simplestring.o(.text._Z13HexStringFromi) refers to simplestring.o(.rodata.str1.1) for .L.str.20
    simplestring.o(.ARM.exidx.text._Z13HexStringFromi) refers to simplestring.o(.text._Z13HexStringFromi) for [Anonymous Symbol]
    simplestring.o(.text._Z13HexStringFroma) refers to simplestring.o(.text._Z16StringFromFormatPKcz) for StringFromFormat(const char*, ...)
    simplestring.o(.text._Z13HexStringFroma) refers to simplestring.o(.text._ZNK12SimpleString4sizeEv) for SimpleString::size() const
    simplestring.o(.text._Z13HexStringFroma) refers to simplestring.o(.text._ZNK12SimpleString9subStringEj) for SimpleString::subString(unsigned) const
    simplestring.o(.text._Z13HexStringFroma) refers to simplestring.o(.text._ZN12SimpleStringaSERKS_) for SimpleString::operator =(const SimpleString&)
    simplestring.o(.text._Z13HexStringFroma) refers to simplestring.o(.text._ZN12SimpleString24deallocateInternalBufferEv) for SimpleString::deallocateInternalBuffer()
    simplestring.o(.text._Z13HexStringFroma) refers to simplestring.o(.rodata.str1.1) for .L.str.20
    simplestring.o(.ARM.exidx.text._Z13HexStringFroma) refers to simplestring.o(.text._Z13HexStringFroma) for [Anonymous Symbol]
    simplestring.o(.text._Z13HexStringFromm) refers to simplestring.o(.text._Z16StringFromFormatPKcz) for StringFromFormat(const char*, ...)
    simplestring.o(.text._Z13HexStringFromm) refers to simplestring.o(.rodata.str1.1) for .L.str.19
    simplestring.o(.ARM.exidx.text._Z13HexStringFromm) refers to simplestring.o(.text._Z13HexStringFromm) for [Anonymous Symbol]
    simplestring.o(.text._Z13HexStringFromj) refers to simplestring.o(.text._Z16StringFromFormatPKcz) for StringFromFormat(const char*, ...)
    simplestring.o(.text._Z13HexStringFromj) refers to simplestring.o(.rodata.str1.1) for .L.str.20
    simplestring.o(.ARM.exidx.text._Z13HexStringFromj) refers to simplestring.o(.text._Z13HexStringFromj) for [Anonymous Symbol]
    simplestring.o(.text._Z30BracketsFormattedHexStringFromi) refers to simplestring.o(.text._Z13HexStringFromi) for HexStringFrom(int)
    simplestring.o(.text._Z30BracketsFormattedHexStringFromi) refers to simplestring.o(.text._Z26BracketsFormattedHexString12SimpleString) for BracketsFormattedHexString(SimpleString)
    simplestring.o(.text._Z30BracketsFormattedHexStringFromi) refers to simplestring.o(.text._ZN12SimpleString24deallocateInternalBufferEv) for SimpleString::deallocateInternalBuffer()
    simplestring.o(.ARM.exidx.text._Z30BracketsFormattedHexStringFromi) refers to simplestring.o(.text._Z30BracketsFormattedHexStringFromi) for [Anonymous Symbol]
    simplestring.o(.text._Z26BracketsFormattedHexString12SimpleString) refers to simplestring.o(.text._ZN12SimpleStringC2EPKc) for SimpleString::SimpleString__sub_object(const char*)
    simplestring.o(.text._Z26BracketsFormattedHexString12SimpleString) refers to simplestring.o(.text._ZNK12SimpleStringplERKS_) for SimpleString::operator +(const SimpleString&) const
    simplestring.o(.text._Z26BracketsFormattedHexString12SimpleString) refers to simplestring.o(.text._ZN12SimpleString24deallocateInternalBufferEv) for SimpleString::deallocateInternalBuffer()
    simplestring.o(.ARM.exidx.text._Z26BracketsFormattedHexString12SimpleString) refers to simplestring.o(.text._Z26BracketsFormattedHexString12SimpleString) for [Anonymous Symbol]
    simplestring.o(.text._Z30BracketsFormattedHexStringFromj) refers to simplestring.o(.text._Z13HexStringFromj) for HexStringFrom(unsigned)
    simplestring.o(.text._Z30BracketsFormattedHexStringFromj) refers to simplestring.o(.text._Z26BracketsFormattedHexString12SimpleString) for BracketsFormattedHexString(SimpleString)
    simplestring.o(.text._Z30BracketsFormattedHexStringFromj) refers to simplestring.o(.text._ZN12SimpleString24deallocateInternalBufferEv) for SimpleString::deallocateInternalBuffer()
    simplestring.o(.ARM.exidx.text._Z30BracketsFormattedHexStringFromj) refers to simplestring.o(.text._Z30BracketsFormattedHexStringFromj) for [Anonymous Symbol]
    simplestring.o(.text._Z30BracketsFormattedHexStringFroml) refers to simplestring.o(.text._Z13HexStringFroml) for HexStringFrom(long)
    simplestring.o(.text._Z30BracketsFormattedHexStringFroml) refers to simplestring.o(.text._Z26BracketsFormattedHexString12SimpleString) for BracketsFormattedHexString(SimpleString)
    simplestring.o(.text._Z30BracketsFormattedHexStringFroml) refers to simplestring.o(.text._ZN12SimpleString24deallocateInternalBufferEv) for SimpleString::deallocateInternalBuffer()
    simplestring.o(.ARM.exidx.text._Z30BracketsFormattedHexStringFroml) refers to simplestring.o(.text._Z30BracketsFormattedHexStringFroml) for [Anonymous Symbol]
    simplestring.o(.text._Z30BracketsFormattedHexStringFromm) refers to simplestring.o(.text._Z13HexStringFromm) for HexStringFrom(unsigned long)
    simplestring.o(.text._Z30BracketsFormattedHexStringFromm) refers to simplestring.o(.text._Z26BracketsFormattedHexString12SimpleString) for BracketsFormattedHexString(SimpleString)
    simplestring.o(.text._Z30BracketsFormattedHexStringFromm) refers to simplestring.o(.text._ZN12SimpleString24deallocateInternalBufferEv) for SimpleString::deallocateInternalBuffer()
    simplestring.o(.ARM.exidx.text._Z30BracketsFormattedHexStringFromm) refers to simplestring.o(.text._Z30BracketsFormattedHexStringFromm) for [Anonymous Symbol]
    simplestring.o(.text._Z30BracketsFormattedHexStringFroma) refers to simplestring.o(.text._Z13HexStringFroma) for HexStringFrom(signed char)
    simplestring.o(.text._Z30BracketsFormattedHexStringFroma) refers to simplestring.o(.text._Z26BracketsFormattedHexString12SimpleString) for BracketsFormattedHexString(SimpleString)
    simplestring.o(.text._Z30BracketsFormattedHexStringFroma) refers to simplestring.o(.text._ZN12SimpleString24deallocateInternalBufferEv) for SimpleString::deallocateInternalBuffer()
    simplestring.o(.ARM.exidx.text._Z30BracketsFormattedHexStringFroma) refers to simplestring.o(.text._Z30BracketsFormattedHexStringFroma) for [Anonymous Symbol]
    simplestring.o(.text._Z10StringFromx) refers to simplestring.o(.text._Z16StringFromFormatPKcz) for StringFromFormat(const char*, ...)
    simplestring.o(.ARM.exidx.text._Z10StringFromx) refers to simplestring.o(.text._Z10StringFromx) for [Anonymous Symbol]
    simplestring.o(.text._Z10StringFromy) refers to simplestring.o(.text._Z16StringFromFormatPKcz) for StringFromFormat(const char*, ...)
    simplestring.o(.ARM.exidx.text._Z10StringFromy) refers to simplestring.o(.text._Z10StringFromy) for [Anonymous Symbol]
    simplestring.o(.text._Z13HexStringFromx) refers to simplestring.o(.text._Z16StringFromFormatPKcz) for StringFromFormat(const char*, ...)
    simplestring.o(.text._Z13HexStringFromx) refers to simplestring.o(.rodata.str1.1) for .L.str.25
    simplestring.o(.ARM.exidx.text._Z13HexStringFromx) refers to simplestring.o(.text._Z13HexStringFromx) for [Anonymous Symbol]
    simplestring.o(.text._Z13HexStringFromy) refers to simplestring.o(.text._Z16StringFromFormatPKcz) for StringFromFormat(const char*, ...)
    simplestring.o(.text._Z13HexStringFromy) refers to simplestring.o(.rodata.str1.1) for .L.str.25
    simplestring.o(.ARM.exidx.text._Z13HexStringFromy) refers to simplestring.o(.text._Z13HexStringFromy) for [Anonymous Symbol]
    simplestring.o(.text._Z30BracketsFormattedHexStringFromx) refers to simplestring.o(.text._Z13HexStringFromx) for HexStringFrom(long long)
    simplestring.o(.text._Z30BracketsFormattedHexStringFromx) refers to simplestring.o(.text._Z26BracketsFormattedHexString12SimpleString) for BracketsFormattedHexString(SimpleString)
    simplestring.o(.text._Z30BracketsFormattedHexStringFromx) refers to simplestring.o(.text._ZN12SimpleString24deallocateInternalBufferEv) for SimpleString::deallocateInternalBuffer()
    simplestring.o(.ARM.exidx.text._Z30BracketsFormattedHexStringFromx) refers to simplestring.o(.text._Z30BracketsFormattedHexStringFromx) for [Anonymous Symbol]
    simplestring.o(.text._Z30BracketsFormattedHexStringFromy) refers to simplestring.o(.text._Z13HexStringFromy) for HexStringFrom(unsigned long long)
    simplestring.o(.text._Z30BracketsFormattedHexStringFromy) refers to simplestring.o(.text._Z26BracketsFormattedHexString12SimpleString) for BracketsFormattedHexString(SimpleString)
    simplestring.o(.text._Z30BracketsFormattedHexStringFromy) refers to simplestring.o(.text._ZN12SimpleString24deallocateInternalBufferEv) for SimpleString::deallocateInternalBuffer()
    simplestring.o(.ARM.exidx.text._Z30BracketsFormattedHexStringFromy) refers to simplestring.o(.text._Z30BracketsFormattedHexStringFromy) for [Anonymous Symbol]
    simplestring.o(.text._Z10StringFromdi) refers to simplestring.o(.text._ZN12SimpleStringC2EPKc) for SimpleString::SimpleString__sub_object(const char*)
    simplestring.o(.text._Z10StringFromdi) refers to simplestring.o(.text._Z16StringFromFormatPKcz) for StringFromFormat(const char*, ...)
    simplestring.o(.text._Z10StringFromdi) refers to utestplatform.o(.data.PlatformSpecificIsNan) for PlatformSpecificIsNan
    simplestring.o(.text._Z10StringFromdi) refers to utestplatform.o(.data.PlatformSpecificIsInf) for PlatformSpecificIsInf
    simplestring.o(.ARM.exidx.text._Z10StringFromdi) refers to simplestring.o(.text._Z10StringFromdi) for [Anonymous Symbol]
    simplestring.o(.text._Z10StringFromc) refers to simplestring.o(.text._Z16StringFromFormatPKcz) for StringFromFormat(const char*, ...)
    simplestring.o(.ARM.exidx.text._Z10StringFromc) refers to simplestring.o(.text._Z10StringFromc) for [Anonymous Symbol]
    simplestring.o(.text._Z10StringFromRK12SimpleString) refers to simplestring.o(.text._ZN12SimpleStringC2ERKS_) for SimpleString::SimpleString__sub_object(const SimpleString&)
    simplestring.o(.ARM.exidx.text._Z10StringFromRK12SimpleString) refers to simplestring.o(.text._Z10StringFromRK12SimpleString) for [Anonymous Symbol]
    simplestring.o(.text._Z17VStringFromFormatPKcSt9__va_list) refers to simplestring.o(.text._ZN12SimpleStringC2EPKc) for SimpleString::SimpleString__sub_object(const char*)
    simplestring.o(.text._Z17VStringFromFormatPKcSt9__va_list) refers to simplestring.o(.text._ZN12SimpleStringaSERKS_) for SimpleString::operator =(const SimpleString&)
    simplestring.o(.text._Z17VStringFromFormatPKcSt9__va_list) refers to simplestring.o(.text._ZN12SimpleString24deallocateInternalBufferEv) for SimpleString::deallocateInternalBuffer()
    simplestring.o(.text._Z17VStringFromFormatPKcSt9__va_list) refers to simplestring.o(.text._ZN12SimpleString17allocStringBufferEjPKcj) for SimpleString::allocStringBuffer(unsigned, const char*, unsigned)
    simplestring.o(.text._Z17VStringFromFormatPKcSt9__va_list) refers to simplestring.o(.text._ZN12SimpleString19deallocStringBufferEPcjPKcj) for SimpleString::deallocStringBuffer(char*, unsigned, const char*, unsigned)
    simplestring.o(.text._Z17VStringFromFormatPKcSt9__va_list) refers to simplestring.o(.rodata.str1.1) for .L.str.10
    simplestring.o(.text._Z17VStringFromFormatPKcSt9__va_list) refers to utestplatform.o(.data.PlatformSpecificVSNprintf) for PlatformSpecificVSNprintf
    simplestring.o(.ARM.exidx.text._Z17VStringFromFormatPKcSt9__va_list) refers to simplestring.o(.text._Z17VStringFromFormatPKcSt9__va_list) for [Anonymous Symbol]
    simplestring.o(.text._Z10StringFromj) refers to simplestring.o(.text._Z16StringFromFormatPKcz) for StringFromFormat(const char*, ...)
    simplestring.o(.ARM.exidx.text._Z10StringFromj) refers to simplestring.o(.text._Z10StringFromj) for [Anonymous Symbol]
    simplestring.o(.text._Z10StringFromm) refers to simplestring.o(.text._Z16StringFromFormatPKcz) for StringFromFormat(const char*, ...)
    simplestring.o(.ARM.exidx.text._Z10StringFromm) refers to simplestring.o(.text._Z10StringFromm) for [Anonymous Symbol]
    simplestring.o(.text._Z16StringFromBinaryPKhj) refers to simplestring.o(.text._ZN12SimpleStringC2EPKc) for SimpleString::SimpleString__sub_object(const char*)
    simplestring.o(.text._Z16StringFromBinaryPKhj) refers to simplestring.o(.text._Z16StringFromFormatPKcz) for StringFromFormat(const char*, ...)
    simplestring.o(.text._Z16StringFromBinaryPKhj) refers to simplestring.o(.text._ZN12SimpleStringpLEPKc) for SimpleString::operator +=(const char*)
    simplestring.o(.text._Z16StringFromBinaryPKhj) refers to simplestring.o(.text._ZN12SimpleString24deallocateInternalBufferEv) for SimpleString::deallocateInternalBuffer()
    simplestring.o(.text._Z16StringFromBinaryPKhj) refers to simplestring.o(.text._ZNK12SimpleString4sizeEv) for SimpleString::size() const
    simplestring.o(.text._Z16StringFromBinaryPKhj) refers to simplestring.o(.text._ZNK12SimpleString9subStringEjj) for SimpleString::subString(unsigned, unsigned) const
    simplestring.o(.text._Z16StringFromBinaryPKhj) refers to simplestring.o(.text._ZN12SimpleStringaSERKS_) for SimpleString::operator =(const SimpleString&)
    simplestring.o(.text._Z16StringFromBinaryPKhj) refers to simplestring.o(.rodata.str1.1) for .L.str.10
    simplestring.o(.ARM.exidx.text._Z16StringFromBinaryPKhj) refers to simplestring.o(.text._Z16StringFromBinaryPKhj) for [Anonymous Symbol]
    simplestring.o(.text._Z22StringFromBinaryOrNullPKhj) refers to simplestring.o(.text._Z16StringFromBinaryPKhj) for StringFromBinary(const unsigned char*, unsigned)
    simplestring.o(.text._Z22StringFromBinaryOrNullPKhj) refers to simplestring.o(.text._ZN12SimpleStringC2EPKc) for SimpleString::SimpleString__sub_object(const char*)
    simplestring.o(.text._Z22StringFromBinaryOrNullPKhj) refers to simplestring.o(.rodata.str1.1) for .L.str.15
    simplestring.o(.ARM.exidx.text._Z22StringFromBinaryOrNullPKhj) refers to simplestring.o(.text._Z22StringFromBinaryOrNullPKhj) for [Anonymous Symbol]
    simplestring.o(.text._Z24StringFromBinaryWithSizePKhj) refers to simplestring.o(.text._Z16StringFromFormatPKcz) for StringFromFormat(const char*, ...)
    simplestring.o(.text._Z24StringFromBinaryWithSizePKhj) refers to simplestring.o(.text._Z22StringFromBinaryOrNullPKhj) for StringFromBinaryOrNull(const unsigned char*, unsigned)
    simplestring.o(.text._Z24StringFromBinaryWithSizePKhj) refers to simplestring.o(.text._ZN12SimpleStringpLEPKc) for SimpleString::operator +=(const char*)
    simplestring.o(.text._Z24StringFromBinaryWithSizePKhj) refers to simplestring.o(.text._ZN12SimpleString24deallocateInternalBufferEv) for SimpleString::deallocateInternalBuffer()
    simplestring.o(.ARM.exidx.text._Z24StringFromBinaryWithSizePKhj) refers to simplestring.o(.text._Z24StringFromBinaryWithSizePKhj) for [Anonymous Symbol]
    simplestring.o(.text._Z30StringFromBinaryWithSizeOrNullPKhj) refers to simplestring.o(.text._Z24StringFromBinaryWithSizePKhj) for StringFromBinaryWithSize(const unsigned char*, unsigned)
    simplestring.o(.text._Z30StringFromBinaryWithSizeOrNullPKhj) refers to simplestring.o(.text._ZN12SimpleStringC2EPKc) for SimpleString::SimpleString__sub_object(const char*)
    simplestring.o(.text._Z30StringFromBinaryWithSizeOrNullPKhj) refers to simplestring.o(.rodata.str1.1) for .L.str.15
    simplestring.o(.ARM.exidx.text._Z30StringFromBinaryWithSizeOrNullPKhj) refers to simplestring.o(.text._Z30StringFromBinaryWithSizeOrNullPKhj) for [Anonymous Symbol]
    simplestring.o(.text._Z20StringFromMaskedBitsmmj) refers to simplestring.o(.text._ZN12SimpleStringC2EPKc) for SimpleString::SimpleString__sub_object(const char*)
    simplestring.o(.text._Z20StringFromMaskedBitsmmj) refers to simplestring.o(.text._ZN12SimpleStringpLEPKc) for SimpleString::operator +=(const char*)
    simplestring.o(.text._Z20StringFromMaskedBitsmmj) refers to simplestring.o(.rodata.str1.1) for .L.str.10
    simplestring.o(.ARM.exidx.text._Z20StringFromMaskedBitsmmj) refers to simplestring.o(.text._Z20StringFromMaskedBitsmmj) for [Anonymous Symbol]
    simplestring.o(.text._Z23StringFromOrdinalNumberj) refers to simplestring.o(.text._Z16StringFromFormatPKcz) for StringFromFormat(const char*, ...)
    simplestring.o(.text._Z23StringFromOrdinalNumberj) refers to simplestring.o(.rodata.str1.1) for .L.str.39
    simplestring.o(.ARM.exidx.text._Z23StringFromOrdinalNumberj) refers to simplestring.o(.text._Z23StringFromOrdinalNumberj) for [Anonymous Symbol]
    simplestring.o(.text._ZN22SimpleStringCollectionC2Ev) refers to simplestring.o(.text._ZN12SimpleStringC2EPKc) for SimpleString::SimpleString__sub_object(const char*)
    simplestring.o(.text._ZN22SimpleStringCollectionC2Ev) refers to simplestring.o(.rodata.str1.1) for .L.str.10
    simplestring.o(.ARM.exidx.text._ZN22SimpleStringCollectionC2Ev) refers to simplestring.o(.text._ZN22SimpleStringCollectionC2Ev) for [Anonymous Symbol]
    simplestring.o(.text._ZN22SimpleStringCollectionD2Ev) refers to simplestring.o(.text._ZN12SimpleString24deallocateInternalBufferEv) for SimpleString::deallocateInternalBuffer()
    simplestring.o(.text._ZN22SimpleStringCollectionD2Ev) refers to memoryleakwarningplugin.o(.text._ZdaPv) for operator delete[] (void*)
    simplestring.o(.ARM.exidx.text._ZN22SimpleStringCollectionD2Ev) refers to simplestring.o(.text._ZN22SimpleStringCollectionD2Ev) for [Anonymous Symbol]
    simplestring.o(.ARM.exidx.text._ZNK22SimpleStringCollection4sizeEv) refers to simplestring.o(.text._ZNK22SimpleStringCollection4sizeEv) for [Anonymous Symbol]
    teamcitytestoutput.o(.text._ZN18TeamCityTestOutputC2Ev) refers to commandlinetestrunner.o(.text._ZN17ConsoleTestOutputC2Ev) for ConsoleTestOutput::ConsoleTestOutput__sub_object()
    teamcitytestoutput.o(.text._ZN18TeamCityTestOutputC2Ev) refers to simplestring.o(.text._ZN12SimpleStringC2EPKc) for SimpleString::SimpleString(const char*)
    teamcitytestoutput.o(.text._ZN18TeamCityTestOutputC2Ev) refers to teamcitytestoutput.o(.rodata._ZTV18TeamCityTestOutput) for vtable for TeamCityTestOutput
    teamcitytestoutput.o(.text._ZN18TeamCityTestOutputC2Ev) refers to teamcitytestoutput.o(.rodata.str1.1) for .L.str
    teamcitytestoutput.o(.ARM.exidx.text._ZN18TeamCityTestOutputC2Ev) refers to teamcitytestoutput.o(.text._ZN18TeamCityTestOutputC2Ev) for [Anonymous Symbol]
    teamcitytestoutput.o(.text._ZN18TeamCityTestOutputD2Ev) refers to simplestring.o(.text._ZN12SimpleStringD2Ev) for SimpleString::~SimpleString()
    teamcitytestoutput.o(.text._ZN18TeamCityTestOutputD2Ev) refers to testoutput.o(.text._ZN10TestOutputD2Ev) for TestOutput::~TestOutput__sub_object()
    teamcitytestoutput.o(.text._ZN18TeamCityTestOutputD2Ev) refers to teamcitytestoutput.o(.rodata._ZTV18TeamCityTestOutput) for vtable for TeamCityTestOutput
    teamcitytestoutput.o(.ARM.exidx.text._ZN18TeamCityTestOutputD2Ev) refers to teamcitytestoutput.o(.text._ZN18TeamCityTestOutputD2Ev) for [Anonymous Symbol]
    teamcitytestoutput.o(.text._ZN18TeamCityTestOutputD0Ev) refers to teamcitytestoutput.o(.text._ZN18TeamCityTestOutputD2Ev) for TeamCityTestOutput::~TeamCityTestOutput__sub_object()
    teamcitytestoutput.o(.text._ZN18TeamCityTestOutputD0Ev) refers to memoryleakwarningplugin.o(.text._ZdlPv) for operator delete (void*)
    teamcitytestoutput.o(.ARM.exidx.text._ZN18TeamCityTestOutputD0Ev) refers to teamcitytestoutput.o(.text._ZN18TeamCityTestOutputD0Ev) for [Anonymous Symbol]
    teamcitytestoutput.o(.text._ZN18TeamCityTestOutput23printCurrentTestStartedERK10UtestShell) refers to utest.o(.text._ZNK10UtestShell7getNameEv) for UtestShell::getName() const
    teamcitytestoutput.o(.text._ZN18TeamCityTestOutput23printCurrentTestStartedERK10UtestShell) refers to simplestring.o(.text._ZNK12SimpleString12asCharStringEv) for SimpleString::asCharString() const
    teamcitytestoutput.o(.text._ZN18TeamCityTestOutput23printCurrentTestStartedERK10UtestShell) refers to teamcitytestoutput.o(.text._ZN18TeamCityTestOutput12printEscapedEPKc) for TeamCityTestOutput::printEscaped(const char*)
    teamcitytestoutput.o(.text._ZN18TeamCityTestOutput23printCurrentTestStartedERK10UtestShell) refers to simplestring.o(.text._ZN12SimpleStringD2Ev) for SimpleString::~SimpleString()
    teamcitytestoutput.o(.text._ZN18TeamCityTestOutput23printCurrentTestStartedERK10UtestShell) refers to teamcitytestoutput.o(.rodata.str1.1) for .L.str.2
    teamcitytestoutput.o(.ARM.exidx.text._ZN18TeamCityTestOutput23printCurrentTestStartedERK10UtestShell) refers to teamcitytestoutput.o(.text._ZN18TeamCityTestOutput23printCurrentTestStartedERK10UtestShell) for [Anonymous Symbol]
    teamcitytestoutput.o(.ARM.exidx.text._ZN18TeamCityTestOutput12printEscapedEPKc) refers to teamcitytestoutput.o(.text._ZN18TeamCityTestOutput12printEscapedEPKc) for [Anonymous Symbol]
    teamcitytestoutput.o(.text._ZN18TeamCityTestOutput21printCurrentTestEndedERK10TestResult) refers to utest.o(.text._ZNK10UtestShell7getNameEv) for UtestShell::getName() const
    teamcitytestoutput.o(.text._ZN18TeamCityTestOutput21printCurrentTestEndedERK10TestResult) refers to simplestring.o(.text._ZNK12SimpleString12asCharStringEv) for SimpleString::asCharString() const
    teamcitytestoutput.o(.text._ZN18TeamCityTestOutput21printCurrentTestEndedERK10TestResult) refers to teamcitytestoutput.o(.text._ZN18TeamCityTestOutput12printEscapedEPKc) for TeamCityTestOutput::printEscaped(const char*)
    teamcitytestoutput.o(.text._ZN18TeamCityTestOutput21printCurrentTestEndedERK10TestResult) refers to simplestring.o(.text._ZN12SimpleStringD2Ev) for SimpleString::~SimpleString()
    teamcitytestoutput.o(.text._ZN18TeamCityTestOutput21printCurrentTestEndedERK10TestResult) refers to testresult.o(.text._ZNK10TestResult32getCurrentTestTotalExecutionTimeEv) for TestResult::getCurrentTestTotalExecutionTime() const
    teamcitytestoutput.o(.text._ZN18TeamCityTestOutput21printCurrentTestEndedERK10TestResult) refers to teamcitytestoutput.o(.rodata.str1.1) for .L.str.2
    teamcitytestoutput.o(.ARM.exidx.text._ZN18TeamCityTestOutput21printCurrentTestEndedERK10TestResult) refers to teamcitytestoutput.o(.text._ZN18TeamCityTestOutput21printCurrentTestEndedERK10TestResult) for [Anonymous Symbol]
    teamcitytestoutput.o(.text._ZN18TeamCityTestOutput24printCurrentGroupStartedERK10UtestShell) refers to utest.o(.text._ZNK10UtestShell8getGroupEv) for UtestShell::getGroup() const
    teamcitytestoutput.o(.text._ZN18TeamCityTestOutput24printCurrentGroupStartedERK10UtestShell) refers to simplestring.o(.text._ZN12SimpleStringaSERKS_) for SimpleString::operator =(const SimpleString&)
    teamcitytestoutput.o(.text._ZN18TeamCityTestOutput24printCurrentGroupStartedERK10UtestShell) refers to simplestring.o(.text._ZN12SimpleStringD2Ev) for SimpleString::~SimpleString()
    teamcitytestoutput.o(.text._ZN18TeamCityTestOutput24printCurrentGroupStartedERK10UtestShell) refers to simplestring.o(.text._ZNK12SimpleString12asCharStringEv) for SimpleString::asCharString() const
    teamcitytestoutput.o(.text._ZN18TeamCityTestOutput24printCurrentGroupStartedERK10UtestShell) refers to teamcitytestoutput.o(.text._ZN18TeamCityTestOutput12printEscapedEPKc) for TeamCityTestOutput::printEscaped(const char*)
    teamcitytestoutput.o(.text._ZN18TeamCityTestOutput24printCurrentGroupStartedERK10UtestShell) refers to teamcitytestoutput.o(.rodata.str1.1) for .L.str.2
    teamcitytestoutput.o(.ARM.exidx.text._ZN18TeamCityTestOutput24printCurrentGroupStartedERK10UtestShell) refers to teamcitytestoutput.o(.text._ZN18TeamCityTestOutput24printCurrentGroupStartedERK10UtestShell) for [Anonymous Symbol]
    teamcitytestoutput.o(.text._ZN18TeamCityTestOutput22printCurrentGroupEndedERK10TestResult) refers to simplestring.o(.text._ZN12SimpleStringC2EPKc) for SimpleString::SimpleString(const char*)
    teamcitytestoutput.o(.text._ZN18TeamCityTestOutput22printCurrentGroupEndedERK10TestResult) refers to simplestring.o(.text._ZeqRK12SimpleStringS1_) for operator ==(const SimpleString&, const SimpleString&)
    teamcitytestoutput.o(.text._ZN18TeamCityTestOutput22printCurrentGroupEndedERK10TestResult) refers to simplestring.o(.text._ZN12SimpleStringD2Ev) for SimpleString::~SimpleString()
    teamcitytestoutput.o(.text._ZN18TeamCityTestOutput22printCurrentGroupEndedERK10TestResult) refers to simplestring.o(.text._ZNK12SimpleString12asCharStringEv) for SimpleString::asCharString() const
    teamcitytestoutput.o(.text._ZN18TeamCityTestOutput22printCurrentGroupEndedERK10TestResult) refers to teamcitytestoutput.o(.text._ZN18TeamCityTestOutput12printEscapedEPKc) for TeamCityTestOutput::printEscaped(const char*)
    teamcitytestoutput.o(.text._ZN18TeamCityTestOutput22printCurrentGroupEndedERK10TestResult) refers to teamcitytestoutput.o(.rodata.str1.1) for .L.str
    teamcitytestoutput.o(.ARM.exidx.text._ZN18TeamCityTestOutput22printCurrentGroupEndedERK10TestResult) refers to teamcitytestoutput.o(.text._ZN18TeamCityTestOutput22printCurrentGroupEndedERK10TestResult) for [Anonymous Symbol]
    teamcitytestoutput.o(.text._ZN18TeamCityTestOutput12printFailureERK11TestFailure) refers to simplestring.o(.text._ZNK12SimpleString12asCharStringEv) for SimpleString::asCharString() const
    teamcitytestoutput.o(.text._ZN18TeamCityTestOutput12printFailureERK11TestFailure) refers to teamcitytestoutput.o(.text._ZN18TeamCityTestOutput12printEscapedEPKc) for TeamCityTestOutput::printEscaped(const char*)
    teamcitytestoutput.o(.text._ZN18TeamCityTestOutput12printFailureERK11TestFailure) refers to simplestring.o(.text._ZN12SimpleStringD2Ev) for SimpleString::~SimpleString()
    teamcitytestoutput.o(.text._ZN18TeamCityTestOutput12printFailureERK11TestFailure) refers to testfailure.o(.text._ZNK11TestFailure17isOutsideTestFileEv) for TestFailure::isOutsideTestFile() const
    teamcitytestoutput.o(.text._ZN18TeamCityTestOutput12printFailureERK11TestFailure) refers to testfailure.o(.text._ZNK11TestFailure18isInHelperFunctionEv) for TestFailure::isInHelperFunction() const
    teamcitytestoutput.o(.text._ZN18TeamCityTestOutput12printFailureERK11TestFailure) refers to teamcitytestoutput.o(.rodata.str1.1) for .L.str.11
    teamcitytestoutput.o(.ARM.exidx.text._ZN18TeamCityTestOutput12printFailureERK11TestFailure) refers to teamcitytestoutput.o(.text._ZN18TeamCityTestOutput12printFailureERK11TestFailure) for [Anonymous Symbol]
    teamcitytestoutput.o(.rodata._ZTV18TeamCityTestOutput) refers to teamcitytestoutput.o(.rodata._ZTI18TeamCityTestOutput) for typeinfo for TeamCityTestOutput
    teamcitytestoutput.o(.rodata._ZTV18TeamCityTestOutput) refers to teamcitytestoutput.o(.text._ZN18TeamCityTestOutputD2Ev) for TeamCityTestOutput::~TeamCityTestOutput__sub_object()
    teamcitytestoutput.o(.rodata._ZTV18TeamCityTestOutput) refers to teamcitytestoutput.o(.text._ZN18TeamCityTestOutputD0Ev) for TeamCityTestOutput::~TeamCityTestOutput__deallocating()
    teamcitytestoutput.o(.rodata._ZTV18TeamCityTestOutput) refers to testoutput.o(.text._ZN10TestOutput17printTestsStartedEv) for TestOutput::printTestsStarted()
    teamcitytestoutput.o(.rodata._ZTV18TeamCityTestOutput) refers to testoutput.o(.text._ZN10TestOutput15printTestsEndedERK10TestResult) for TestOutput::printTestsEnded(const TestResult&)
    teamcitytestoutput.o(.rodata._ZTV18TeamCityTestOutput) refers to teamcitytestoutput.o(.text._ZN18TeamCityTestOutput23printCurrentTestStartedERK10UtestShell) for TeamCityTestOutput::printCurrentTestStarted(const UtestShell&)
    teamcitytestoutput.o(.rodata._ZTV18TeamCityTestOutput) refers to teamcitytestoutput.o(.text._ZN18TeamCityTestOutput21printCurrentTestEndedERK10TestResult) for TeamCityTestOutput::printCurrentTestEnded(const TestResult&)
    teamcitytestoutput.o(.rodata._ZTV18TeamCityTestOutput) refers to teamcitytestoutput.o(.text._ZN18TeamCityTestOutput24printCurrentGroupStartedERK10UtestShell) for TeamCityTestOutput::printCurrentGroupStarted(const UtestShell&)
    teamcitytestoutput.o(.rodata._ZTV18TeamCityTestOutput) refers to teamcitytestoutput.o(.text._ZN18TeamCityTestOutput22printCurrentGroupEndedERK10TestResult) for TeamCityTestOutput::printCurrentGroupEnded(const TestResult&)
    teamcitytestoutput.o(.rodata._ZTV18TeamCityTestOutput) refers to testoutput.o(.text._ZN10TestOutput7verboseENS_14VerbosityLevelE) for TestOutput::verbose(TestOutput::VerbosityLevel)
    teamcitytestoutput.o(.rodata._ZTV18TeamCityTestOutput) refers to testoutput.o(.text._ZN10TestOutput5colorEv) for TestOutput::color()
    teamcitytestoutput.o(.rodata._ZTV18TeamCityTestOutput) refers to testoutput.o(.text._ZN17ConsoleTestOutput11printBufferEPKc) for ConsoleTestOutput::printBuffer(const char*)
    teamcitytestoutput.o(.rodata._ZTV18TeamCityTestOutput) refers to testoutput.o(.text._ZN10TestOutput5printEPKc) for TestOutput::print(const char*)
    teamcitytestoutput.o(.rodata._ZTV18TeamCityTestOutput) refers to testoutput.o(.text._ZN10TestOutput5printEl) for TestOutput::print(long)
    teamcitytestoutput.o(.rodata._ZTV18TeamCityTestOutput) refers to testoutput.o(.text._ZN10TestOutput5printEj) for TestOutput::print(unsigned)
    teamcitytestoutput.o(.rodata._ZTV18TeamCityTestOutput) refers to testoutput.o(.text._ZN10TestOutput11printDoubleEd) for TestOutput::printDouble(double)
    teamcitytestoutput.o(.rodata._ZTV18TeamCityTestOutput) refers to teamcitytestoutput.o(.text._ZN18TeamCityTestOutput12printFailureERK11TestFailure) for TeamCityTestOutput::printFailure(const TestFailure&)
    teamcitytestoutput.o(.rodata._ZTV18TeamCityTestOutput) refers to testoutput.o(.text._ZN10TestOutput12printTestRunEjj) for TestOutput::printTestRun(unsigned, unsigned)
    teamcitytestoutput.o(.rodata._ZTV18TeamCityTestOutput) refers to testoutput.o(.text._ZN10TestOutput20setProgressIndicatorEPKc) for TestOutput::setProgressIndicator(const char*)
    teamcitytestoutput.o(.rodata._ZTV18TeamCityTestOutput) refers to testoutput.o(.text._ZN10TestOutput16printVeryVerboseEPKc) for TestOutput::printVeryVerbose(const char*)
    teamcitytestoutput.o(.rodata._ZTV18TeamCityTestOutput) refers to testoutput.o(.text._ZN17ConsoleTestOutput5flushEv) for ConsoleTestOutput::flush()
    teamcitytestoutput.o(.rodata._ZTV18TeamCityTestOutput) refers to testoutput.o(.text._ZN10TestOutput29printEclipseErrorInFileOnLineE12SimpleStringj) for TestOutput::printEclipseErrorInFileOnLine(SimpleString, unsigned)
    teamcitytestoutput.o(.rodata._ZTV18TeamCityTestOutput) refers to testoutput.o(.text._ZN10TestOutput34printVisualStudioErrorInFileOnLineE12SimpleStringj) for TestOutput::printVisualStudioErrorInFileOnLine(SimpleString, unsigned)
    teamcitytestoutput.o(.rodata._ZTV18TeamCityTestOutput) refers to testoutput.o(.text._ZN10TestOutput22printProgressIndicatorEv) for TestOutput::printProgressIndicator()
    teamcitytestoutput.o(.rodata._ZTI18TeamCityTestOutput) refers to private_typeinfo.cpp.o(.rodata._ZTVN10__cxxabiv120__si_class_type_infoE) for vtable for __cxxabiv1::__si_class_type_info
    teamcitytestoutput.o(.rodata._ZTI18TeamCityTestOutput) refers to teamcitytestoutput.o(.rodata._ZTS18TeamCityTestOutput) for typeinfo name for TeamCityTestOutput
    teamcitytestoutput.o(.rodata._ZTI18TeamCityTestOutput) refers to testoutput.o(.rodata._ZTI17ConsoleTestOutput) for typeinfo for ConsoleTestOutput
    testfailure.o(.text._ZN11TestFailureC2EP10UtestShellPKcjRK12SimpleString) refers to utest.o(.text._ZNK10UtestShell7getNameEv) for UtestShell::getName() const
    testfailure.o(.text._ZN11TestFailureC2EP10UtestShellPKcjRK12SimpleString) refers to simplestring.o(.text._ZN12SimpleStringC2EPKc) for SimpleString::SimpleString(const char*)
    testfailure.o(.text._ZN11TestFailureC2EP10UtestShellPKcjRK12SimpleString) refers to utest.o(.text._ZNK10UtestShell7getFileEv) for UtestShell::getFile() const
    testfailure.o(.text._ZN11TestFailureC2EP10UtestShellPKcjRK12SimpleString) refers to utest.o(.text._ZNK10UtestShell13getLineNumberEv) for UtestShell::getLineNumber() const
    testfailure.o(.text._ZN11TestFailureC2EP10UtestShellPKcjRK12SimpleString) refers to simplestring.o(.text._ZN12SimpleStringC2ERKS_) for SimpleString::SimpleString(const SimpleString&)
    testfailure.o(.text._ZN11TestFailureC2EP10UtestShellPKcjRK12SimpleString) refers to testfailure.o(.rodata._ZTV11TestFailure) for vtable for TestFailure
    testfailure.o(.ARM.exidx.text._ZN11TestFailureC2EP10UtestShellPKcjRK12SimpleString) refers to testfailure.o(.text._ZN11TestFailureC2EP10UtestShellPKcjRK12SimpleString) for [Anonymous Symbol]
    testfailure.o(.text._ZN11TestFailureC2EP10UtestShellRK12SimpleString) refers to utest.o(.text._ZNK10UtestShell7getNameEv) for UtestShell::getName() const
    testfailure.o(.text._ZN11TestFailureC2EP10UtestShellRK12SimpleString) refers to utest.o(.text._ZNK10UtestShell7getFileEv) for UtestShell::getFile() const
    testfailure.o(.text._ZN11TestFailureC2EP10UtestShellRK12SimpleString) refers to utest.o(.text._ZNK10UtestShell13getLineNumberEv) for UtestShell::getLineNumber() const
    testfailure.o(.text._ZN11TestFailureC2EP10UtestShellRK12SimpleString) refers to simplestring.o(.text._ZN12SimpleStringC2ERKS_) for SimpleString::SimpleString(const SimpleString&)
    testfailure.o(.text._ZN11TestFailureC2EP10UtestShellRK12SimpleString) refers to testfailure.o(.rodata._ZTV11TestFailure) for vtable for TestFailure
    testfailure.o(.ARM.exidx.text._ZN11TestFailureC2EP10UtestShellRK12SimpleString) refers to testfailure.o(.text._ZN11TestFailureC2EP10UtestShellRK12SimpleString) for [Anonymous Symbol]
    testfailure.o(.text._ZN11TestFailureC2EP10UtestShellPKcj) refers to utest.o(.text._ZNK10UtestShell7getNameEv) for UtestShell::getName() const
    testfailure.o(.text._ZN11TestFailureC2EP10UtestShellPKcj) refers to simplestring.o(.text._ZN12SimpleStringC2EPKc) for SimpleString::SimpleString(const char*)
    testfailure.o(.text._ZN11TestFailureC2EP10UtestShellPKcj) refers to utest.o(.text._ZNK10UtestShell7getFileEv) for UtestShell::getFile() const
    testfailure.o(.text._ZN11TestFailureC2EP10UtestShellPKcj) refers to utest.o(.text._ZNK10UtestShell13getLineNumberEv) for UtestShell::getLineNumber() const
    testfailure.o(.text._ZN11TestFailureC2EP10UtestShellPKcj) refers to testfailure.o(.rodata._ZTV11TestFailure) for vtable for TestFailure
    testfailure.o(.ARM.exidx.text._ZN11TestFailureC2EP10UtestShellPKcj) refers to testfailure.o(.text._ZN11TestFailureC2EP10UtestShellPKcj) for [Anonymous Symbol]
    testfailure.o(.text._ZN11TestFailureC2ERKS_) refers to testfailure.o(.rodata._ZTV11TestFailure) for vtable for TestFailure
    testfailure.o(.text._ZN11TestFailureC2ERKS_) refers to simplestring.o(.text._ZN12SimpleStringC2ERKS_) for SimpleString::SimpleString(const SimpleString&)
    testfailure.o(.ARM.exidx.text._ZN11TestFailureC2ERKS_) refers to testfailure.o(.text._ZN11TestFailureC2ERKS_) for [Anonymous Symbol]
    testfailure.o(.text._ZN11TestFailureD0Ev) refers to testfailure.o(.text._ZN11TestFailureD2Ev) for TestFailure::~TestFailure__sub_object()
    testfailure.o(.text._ZN11TestFailureD0Ev) refers to memoryleakwarningplugin.o(.text._ZdlPv) for operator delete (void*)
    testfailure.o(.ARM.exidx.text._ZN11TestFailureD0Ev) refers to testfailure.o(.text._ZN11TestFailureD0Ev) for [Anonymous Symbol]
    testfailure.o(.text._ZNK11TestFailure11getFileNameEv) refers to simplestring.o(.text._ZN12SimpleStringC2ERKS_) for SimpleString::SimpleString(const SimpleString&)
    testfailure.o(.ARM.exidx.text._ZNK11TestFailure11getFileNameEv) refers to testfailure.o(.text._ZNK11TestFailure11getFileNameEv) for [Anonymous Symbol]
    testfailure.o(.text._ZNK11TestFailure15getTestFileNameEv) refers to simplestring.o(.text._ZN12SimpleStringC2ERKS_) for SimpleString::SimpleString(const SimpleString&)
    testfailure.o(.ARM.exidx.text._ZNK11TestFailure15getTestFileNameEv) refers to testfailure.o(.text._ZNK11TestFailure15getTestFileNameEv) for [Anonymous Symbol]
    testfailure.o(.text._ZNK11TestFailure11getTestNameEv) refers to simplestring.o(.text._ZN12SimpleStringC2ERKS_) for SimpleString::SimpleString(const SimpleString&)
    testfailure.o(.ARM.exidx.text._ZNK11TestFailure11getTestNameEv) refers to testfailure.o(.text._ZNK11TestFailure11getTestNameEv) for [Anonymous Symbol]
    testfailure.o(.text._ZNK11TestFailure15getTestNameOnlyEv) refers to simplestring.o(.text._ZN12SimpleStringC2ERKS_) for SimpleString::SimpleString(const SimpleString&)
    testfailure.o(.ARM.exidx.text._ZNK11TestFailure15getTestNameOnlyEv) refers to testfailure.o(.text._ZNK11TestFailure15getTestNameOnlyEv) for [Anonymous Symbol]
    testfailure.o(.ARM.exidx.text._ZNK11TestFailure20getFailureLineNumberEv) refers to testfailure.o(.text._ZNK11TestFailure20getFailureLineNumberEv) for [Anonymous Symbol]
    testfailure.o(.ARM.exidx.text._ZNK11TestFailure17getTestLineNumberEv) refers to testfailure.o(.text._ZNK11TestFailure17getTestLineNumberEv) for [Anonymous Symbol]
    testfailure.o(.text._ZNK11TestFailure10getMessageEv) refers to simplestring.o(.text._ZN12SimpleStringC2ERKS_) for SimpleString::SimpleString(const SimpleString&)
    testfailure.o(.ARM.exidx.text._ZNK11TestFailure10getMessageEv) refers to testfailure.o(.text._ZNK11TestFailure10getMessageEv) for [Anonymous Symbol]
    testfailure.o(.text._ZNK11TestFailure17isOutsideTestFileEv) refers to simplestring.o(.text._ZneRK12SimpleStringS1_) for operator !=(const SimpleString&, const SimpleString&)
    testfailure.o(.ARM.exidx.text._ZNK11TestFailure17isOutsideTestFileEv) refers to testfailure.o(.text._ZNK11TestFailure17isOutsideTestFileEv) for [Anonymous Symbol]
    testfailure.o(.ARM.exidx.text._ZNK11TestFailure18isInHelperFunctionEv) refers to testfailure.o(.text._ZNK11TestFailure18isInHelperFunctionEv) for [Anonymous Symbol]
    testfailure.o(.text._ZN11TestFailure18createButWasStringERK12SimpleStringS2_) refers to simplestring.o(.text._ZNK12SimpleString12asCharStringEv) for SimpleString::asCharString() const
    testfailure.o(.text._ZN11TestFailure18createButWasStringERK12SimpleStringS2_) refers to simplestring.o(.text._Z16StringFromFormatPKcz) for StringFromFormat(const char*, ...)
    testfailure.o(.ARM.exidx.text._ZN11TestFailure18createButWasStringERK12SimpleStringS2_) refers to testfailure.o(.text._ZN11TestFailure18createButWasStringERK12SimpleStringS2_) for [Anonymous Symbol]
    testfailure.o(.text._ZN11TestFailure27createDifferenceAtPosStringERK12SimpleStringjj) refers to simplestring.o(.text._ZN12SimpleStringC2EPKc) for SimpleString::SimpleString(const char*)
    testfailure.o(.text._ZN11TestFailure27createDifferenceAtPosStringERK12SimpleStringjj) refers to simplestring.o(.text._ZN12SimpleStringC2EPKcj) for SimpleString::SimpleString(const char*, unsigned)
    testfailure.o(.text._ZN11TestFailure27createDifferenceAtPosStringERK12SimpleStringjj) refers to simplestring.o(.text._ZNK12SimpleStringplERKS_) for SimpleString::operator +(const SimpleString&) const
    testfailure.o(.text._ZN11TestFailure27createDifferenceAtPosStringERK12SimpleStringjj) refers to simplestring.o(.text._ZN12SimpleStringpLEPKc) for SimpleString::operator +=(const char*)
    testfailure.o(.text._ZN11TestFailure27createDifferenceAtPosStringERK12SimpleStringjj) refers to simplestring.o(.text._ZNK12SimpleString9subStringEjj) for SimpleString::subString(unsigned, unsigned) const
    testfailure.o(.text._ZN11TestFailure27createDifferenceAtPosStringERK12SimpleStringjj) refers to simplestring.o(.text._ZN12SimpleStringpLERKS_) for SimpleString::operator +=(const SimpleString&)
    testfailure.o(.text._ZN11TestFailure27createDifferenceAtPosStringERK12SimpleStringjj) refers to simplestring.o(.text._ZNK12SimpleString4sizeEv) for SimpleString::size() const
    testfailure.o(.text._ZN11TestFailure27createDifferenceAtPosStringERK12SimpleStringjj) refers to testfailure.o(.rodata.str1.1) for .L.str.2
    testfailure.o(.text._ZN11TestFailure27createDifferenceAtPosStringERK12SimpleStringjj) refers to simplestring.o(.text._ZN12SimpleStringD2Ev) for SimpleString::~SimpleString()
    testfailure.o(.text._ZN11TestFailure27createDifferenceAtPosStringERK12SimpleStringjj) refers to simplestring.o(.text._Z16StringFromFormatPKcz) for StringFromFormat(const char*, ...)
    testfailure.o(.text._ZN11TestFailure27createDifferenceAtPosStringERK12SimpleStringjj) refers to simplestring.o(.text._ZNK12SimpleString12asCharStringEv) for SimpleString::asCharString() const
    testfailure.o(.ARM.exidx.text._ZN11TestFailure27createDifferenceAtPosStringERK12SimpleStringjj) refers to testfailure.o(.text._ZN11TestFailure27createDifferenceAtPosStringERK12SimpleStringjj) for [Anonymous Symbol]
    testfailure.o(.text._ZN11TestFailure14createUserTextERK12SimpleString) refers to simplestring.o(.text._ZN12SimpleStringC2EPKc) for SimpleString::SimpleString(const char*)
    testfailure.o(.text._ZN11TestFailure14createUserTextERK12SimpleString) refers to simplestring.o(.text._ZNK12SimpleString7isEmptyEv) for SimpleString::isEmpty() const
    testfailure.o(.text._ZN11TestFailure14createUserTextERK12SimpleString) refers to simplestring.o(.text._ZNK12SimpleString10startsWithERKS_) for SimpleString::startsWith(const SimpleString&) const
    testfailure.o(.text._ZN11TestFailure14createUserTextERK12SimpleString) refers to simplestring.o(.text._ZN12SimpleStringD2Ev) for SimpleString::~SimpleString()
    testfailure.o(.text._ZN11TestFailure14createUserTextERK12SimpleString) refers to simplestring.o(.text._ZN12SimpleStringpLEPKc) for SimpleString::operator +=(const char*)
    testfailure.o(.text._ZN11TestFailure14createUserTextERK12SimpleString) refers to simplestring.o(.text._ZN12SimpleStringpLERKS_) for SimpleString::operator +=(const SimpleString&)
    testfailure.o(.text._ZN11TestFailure14createUserTextERK12SimpleString) refers to testfailure.o(.rodata.str1.1) for .L.str.2
    testfailure.o(.ARM.exidx.text._ZN11TestFailure14createUserTextERK12SimpleString) refers to testfailure.o(.text._ZN11TestFailure14createUserTextERK12SimpleString) for [Anonymous Symbol]
    testfailure.o(.text._ZN13EqualsFailureC2EP10UtestShellPKcjS3_S3_RK12SimpleString) refers to testfailure.o(.text._ZN11TestFailureC2EP10UtestShellPKcj) for TestFailure::TestFailure__sub_object(UtestShell*, const char*, unsigned)
    testfailure.o(.text._ZN13EqualsFailureC2EP10UtestShellPKcjS3_S3_RK12SimpleString) refers to testfailure.o(.text._ZN11TestFailure14createUserTextERK12SimpleString) for TestFailure::createUserText(const SimpleString&)
    testfailure.o(.text._ZN13EqualsFailureC2EP10UtestShellPKcjS3_S3_RK12SimpleString) refers to simplestring.o(.text._ZN12SimpleStringaSERKS_) for SimpleString::operator =(const SimpleString&)
    testfailure.o(.text._ZN13EqualsFailureC2EP10UtestShellPKcjS3_S3_RK12SimpleString) refers to simplestring.o(.text._Z16StringFromOrNullPKc) for StringFromOrNull(const char*)
    testfailure.o(.text._ZN13EqualsFailureC2EP10UtestShellPKcjS3_S3_RK12SimpleString) refers to testfailure.o(.text._ZN11TestFailure18createButWasStringERK12SimpleStringS2_) for TestFailure::createButWasString(const SimpleString&, const SimpleString&)
    testfailure.o(.text._ZN13EqualsFailureC2EP10UtestShellPKcjS3_S3_RK12SimpleString) refers to simplestring.o(.text._ZN12SimpleStringpLERKS_) for SimpleString::operator +=(const SimpleString&)
    testfailure.o(.text._ZN13EqualsFailureC2EP10UtestShellPKcjS3_S3_RK12SimpleString) refers to testfailure.o(.rodata._ZTV13EqualsFailure) for vtable for EqualsFailure
    testfailure.o(.text._ZN13EqualsFailureC2EP10UtestShellPKcjS3_S3_RK12SimpleString) refers to simplestring.o(.text._ZN12SimpleStringD2Ev) for SimpleString::~SimpleString()
    testfailure.o(.ARM.exidx.text._ZN13EqualsFailureC2EP10UtestShellPKcjS3_S3_RK12SimpleString) refers to testfailure.o(.text._ZN13EqualsFailureC2EP10UtestShellPKcjS3_S3_RK12SimpleString) for [Anonymous Symbol]
    testfailure.o(.text._ZN13EqualsFailureC2EP10UtestShellPKcjRK12SimpleStringS6_S6_) refers to testfailure.o(.text._ZN11TestFailureC2EP10UtestShellPKcj) for TestFailure::TestFailure__sub_object(UtestShell*, const char*, unsigned)
    testfailure.o(.text._ZN13EqualsFailureC2EP10UtestShellPKcjRK12SimpleStringS6_S6_) refers to testfailure.o(.text._ZN11TestFailure14createUserTextERK12SimpleString) for TestFailure::createUserText(const SimpleString&)
    testfailure.o(.text._ZN13EqualsFailureC2EP10UtestShellPKcjRK12SimpleStringS6_S6_) refers to simplestring.o(.text._ZN12SimpleStringaSERKS_) for SimpleString::operator =(const SimpleString&)
    testfailure.o(.text._ZN13EqualsFailureC2EP10UtestShellPKcjRK12SimpleStringS6_S6_) refers to simplestring.o(.text._ZN12SimpleStringD2Ev) for SimpleString::~SimpleString()
    testfailure.o(.text._ZN13EqualsFailureC2EP10UtestShellPKcjRK12SimpleStringS6_S6_) refers to testfailure.o(.text._ZN11TestFailure18createButWasStringERK12SimpleStringS2_) for TestFailure::createButWasString(const SimpleString&, const SimpleString&)
    testfailure.o(.text._ZN13EqualsFailureC2EP10UtestShellPKcjRK12SimpleStringS6_S6_) refers to simplestring.o(.text._ZN12SimpleStringpLERKS_) for SimpleString::operator +=(const SimpleString&)
    testfailure.o(.text._ZN13EqualsFailureC2EP10UtestShellPKcjRK12SimpleStringS6_S6_) refers to testfailure.o(.rodata._ZTV13EqualsFailure) for vtable for EqualsFailure
    testfailure.o(.ARM.exidx.text._ZN13EqualsFailureC2EP10UtestShellPKcjRK12SimpleStringS6_S6_) refers to testfailure.o(.text._ZN13EqualsFailureC2EP10UtestShellPKcjRK12SimpleStringS6_S6_) for [Anonymous Symbol]
    testfailure.o(.text._ZN19DoublesEqualFailureC2EP10UtestShellPKcjdddRK12SimpleString) refers to testfailure.o(.text._ZN11TestFailureC2EP10UtestShellPKcj) for TestFailure::TestFailure__sub_object(UtestShell*, const char*, unsigned)
    testfailure.o(.text._ZN19DoublesEqualFailureC2EP10UtestShellPKcjdddRK12SimpleString) refers to testfailure.o(.text._ZN11TestFailure14createUserTextERK12SimpleString) for TestFailure::createUserText(const SimpleString&)
    testfailure.o(.text._ZN19DoublesEqualFailureC2EP10UtestShellPKcjdddRK12SimpleString) refers to simplestring.o(.text._ZN12SimpleStringaSERKS_) for SimpleString::operator =(const SimpleString&)
    testfailure.o(.text._ZN19DoublesEqualFailureC2EP10UtestShellPKcjdddRK12SimpleString) refers to testfailure.o(.text._ZN11TestFailure18createButWasStringERK12SimpleStringS2_) for TestFailure::createButWasString(const SimpleString&, const SimpleString&)
    testfailure.o(.text._ZN19DoublesEqualFailureC2EP10UtestShellPKcjdddRK12SimpleString) refers to simplestring.o(.text._ZN12SimpleStringpLERKS_) for SimpleString::operator +=(const SimpleString&)
    testfailure.o(.text._ZN19DoublesEqualFailureC2EP10UtestShellPKcjdddRK12SimpleString) refers to simplestring.o(.text._ZN12SimpleStringpLEPKc) for SimpleString::operator +=(const char*)
    testfailure.o(.text._ZN19DoublesEqualFailureC2EP10UtestShellPKcjdddRK12SimpleString) refers to testfailure.o(.rodata._ZTV19DoublesEqualFailure) for vtable for DoublesEqualFailure
    testfailure.o(.text._ZN19DoublesEqualFailureC2EP10UtestShellPKcjdddRK12SimpleString) refers to simplestring.o(.text._ZN12SimpleStringD2Ev) for SimpleString::~SimpleString()
    testfailure.o(.text._ZN19DoublesEqualFailureC2EP10UtestShellPKcjdddRK12SimpleString) refers to simplestring.o(.text._Z10StringFromdi) for StringFrom(double, int)
    testfailure.o(.text._ZN19DoublesEqualFailureC2EP10UtestShellPKcjdddRK12SimpleString) refers to utestplatform.o(.data.PlatformSpecificIsNan) for PlatformSpecificIsNan
    testfailure.o(.ARM.exidx.text._ZN19DoublesEqualFailureC2EP10UtestShellPKcjdddRK12SimpleString) refers to testfailure.o(.text._ZN19DoublesEqualFailureC2EP10UtestShellPKcjdddRK12SimpleString) for [Anonymous Symbol]
    testfailure.o(.text._ZN17CheckEqualFailureC2EP10UtestShellPKcjRK12SimpleStringS6_S6_) refers to testfailure.o(.text._ZN11TestFailureC2EP10UtestShellPKcj) for TestFailure::TestFailure__sub_object(UtestShell*, const char*, unsigned)
    testfailure.o(.text._ZN17CheckEqualFailureC2EP10UtestShellPKcjRK12SimpleStringS6_S6_) refers to testfailure.o(.text._ZN11TestFailure14createUserTextERK12SimpleString) for TestFailure::createUserText(const SimpleString&)
    testfailure.o(.text._ZN17CheckEqualFailureC2EP10UtestShellPKcjRK12SimpleStringS6_S6_) refers to simplestring.o(.text._ZN12SimpleStringaSERKS_) for SimpleString::operator =(const SimpleString&)
    testfailure.o(.text._ZN17CheckEqualFailureC2EP10UtestShellPKcjRK12SimpleStringS6_S6_) refers to simplestring.o(.text._ZN12SimpleStringD2Ev) for SimpleString::~SimpleString()
    testfailure.o(.text._ZN17CheckEqualFailureC2EP10UtestShellPKcjRK12SimpleStringS6_S6_) refers to simplestring.o(.text._ZNK12SimpleString12asCharStringEv) for SimpleString::asCharString() const
    testfailure.o(.text._ZN17CheckEqualFailureC2EP10UtestShellPKcjRK12SimpleStringS6_S6_) refers to simplestring.o(.text._Z25PrintableStringFromOrNullPKc) for PrintableStringFromOrNull(const char*)
    testfailure.o(.text._ZN17CheckEqualFailureC2EP10UtestShellPKcjRK12SimpleStringS6_S6_) refers to testfailure.o(.text._ZN11TestFailure18createButWasStringERK12SimpleStringS2_) for TestFailure::createButWasString(const SimpleString&, const SimpleString&)
    testfailure.o(.text._ZN17CheckEqualFailureC2EP10UtestShellPKcjRK12SimpleStringS6_S6_) refers to simplestring.o(.text._ZN12SimpleStringpLERKS_) for SimpleString::operator +=(const SimpleString&)
    testfailure.o(.text._ZN17CheckEqualFailureC2EP10UtestShellPKcjRK12SimpleStringS6_S6_) refers to simplestring.o(.text._ZNK12SimpleString2atEj) for SimpleString::at(unsigned) const
    testfailure.o(.text._ZN17CheckEqualFailureC2EP10UtestShellPKcjRK12SimpleStringS6_S6_) refers to testfailure.o(.text._ZN11TestFailure27createDifferenceAtPosStringERK12SimpleStringjj) for TestFailure::createDifferenceAtPosString(const SimpleString&, unsigned, unsigned)
    testfailure.o(.text._ZN17CheckEqualFailureC2EP10UtestShellPKcjRK12SimpleStringS6_S6_) refers to testfailure.o(.rodata._ZTV17CheckEqualFailure) for vtable for CheckEqualFailure
    testfailure.o(.ARM.exidx.text._ZN17CheckEqualFailureC2EP10UtestShellPKcjRK12SimpleStringS6_S6_) refers to testfailure.o(.text._ZN17CheckEqualFailureC2EP10UtestShellPKcjRK12SimpleStringS6_S6_) for [Anonymous Symbol]
    testfailure.o(.text._ZN17ComparisonFailureC2EP10UtestShellPKcjRK12SimpleStringS6_S6_) refers to testfailure.o(.text._ZN11TestFailureC2EP10UtestShellPKcj) for TestFailure::TestFailure__sub_object(UtestShell*, const char*, unsigned)
    testfailure.o(.text._ZN17ComparisonFailureC2EP10UtestShellPKcjRK12SimpleStringS6_S6_) refers to testfailure.o(.text._ZN11TestFailure14createUserTextERK12SimpleString) for TestFailure::createUserText(const SimpleString&)
    testfailure.o(.text._ZN17ComparisonFailureC2EP10UtestShellPKcjRK12SimpleStringS6_S6_) refers to simplestring.o(.text._ZN12SimpleStringaSERKS_) for SimpleString::operator =(const SimpleString&)
    testfailure.o(.text._ZN17ComparisonFailureC2EP10UtestShellPKcjRK12SimpleStringS6_S6_) refers to simplestring.o(.text._ZN12SimpleStringD2Ev) for SimpleString::~SimpleString()
    testfailure.o(.text._ZN17ComparisonFailureC2EP10UtestShellPKcjRK12SimpleStringS6_S6_) refers to simplestring.o(.text._ZN12SimpleStringpLERKS_) for SimpleString::operator +=(const SimpleString&)
    testfailure.o(.text._ZN17ComparisonFailureC2EP10UtestShellPKcjRK12SimpleStringS6_S6_) refers to simplestring.o(.text._ZN12SimpleStringpLEPKc) for SimpleString::operator +=(const char*)
    testfailure.o(.text._ZN17ComparisonFailureC2EP10UtestShellPKcjRK12SimpleStringS6_S6_) refers to testfailure.o(.rodata._ZTV17ComparisonFailure) for vtable for ComparisonFailure
    testfailure.o(.text._ZN17ComparisonFailureC2EP10UtestShellPKcjRK12SimpleStringS6_S6_) refers to testfailure.o(.rodata.str1.1) for .L.str.14
    testfailure.o(.ARM.exidx.text._ZN17ComparisonFailureC2EP10UtestShellPKcjRK12SimpleStringS6_S6_) refers to testfailure.o(.text._ZN17ComparisonFailureC2EP10UtestShellPKcjRK12SimpleStringS6_S6_) for [Anonymous Symbol]
    testfailure.o(.text._ZN15ContainsFailureC2EP10UtestShellPKcjRK12SimpleStringS6_S6_) refers to testfailure.o(.text._ZN11TestFailureC2EP10UtestShellPKcj) for TestFailure::TestFailure__sub_object(UtestShell*, const char*, unsigned)
    testfailure.o(.text._ZN15ContainsFailureC2EP10UtestShellPKcjRK12SimpleStringS6_S6_) refers to testfailure.o(.text._ZN11TestFailure14createUserTextERK12SimpleString) for TestFailure::createUserText(const SimpleString&)
    testfailure.o(.text._ZN15ContainsFailureC2EP10UtestShellPKcjRK12SimpleStringS6_S6_) refers to simplestring.o(.text._ZN12SimpleStringaSERKS_) for SimpleString::operator =(const SimpleString&)
    testfailure.o(.text._ZN15ContainsFailureC2EP10UtestShellPKcjRK12SimpleStringS6_S6_) refers to simplestring.o(.text._ZN12SimpleStringD2Ev) for SimpleString::~SimpleString()
    testfailure.o(.text._ZN15ContainsFailureC2EP10UtestShellPKcjRK12SimpleStringS6_S6_) refers to simplestring.o(.text._ZNK12SimpleString12asCharStringEv) for SimpleString::asCharString() const
    testfailure.o(.text._ZN15ContainsFailureC2EP10UtestShellPKcjRK12SimpleStringS6_S6_) refers to simplestring.o(.text._Z16StringFromFormatPKcz) for StringFromFormat(const char*, ...)
    testfailure.o(.text._ZN15ContainsFailureC2EP10UtestShellPKcjRK12SimpleStringS6_S6_) refers to simplestring.o(.text._ZN12SimpleStringpLERKS_) for SimpleString::operator +=(const SimpleString&)
    testfailure.o(.text._ZN15ContainsFailureC2EP10UtestShellPKcjRK12SimpleStringS6_S6_) refers to testfailure.o(.rodata._ZTV15ContainsFailure) for vtable for ContainsFailure
    testfailure.o(.ARM.exidx.text._ZN15ContainsFailureC2EP10UtestShellPKcjRK12SimpleStringS6_S6_) refers to testfailure.o(.text._ZN15ContainsFailureC2EP10UtestShellPKcjRK12SimpleStringS6_S6_) for [Anonymous Symbol]
    testfailure.o(.text._ZN12CheckFailureC2EP10UtestShellPKcjRK12SimpleStringS6_S6_) refers to testfailure.o(.text._ZN11TestFailureC2EP10UtestShellPKcj) for TestFailure::TestFailure__sub_object(UtestShell*, const char*, unsigned)
    testfailure.o(.text._ZN12CheckFailureC2EP10UtestShellPKcjRK12SimpleStringS6_S6_) refers to testfailure.o(.text._ZN11TestFailure14createUserTextERK12SimpleString) for TestFailure::createUserText(const SimpleString&)
    testfailure.o(.text._ZN12CheckFailureC2EP10UtestShellPKcjRK12SimpleStringS6_S6_) refers to simplestring.o(.text._ZN12SimpleStringaSERKS_) for SimpleString::operator =(const SimpleString&)
    testfailure.o(.text._ZN12CheckFailureC2EP10UtestShellPKcjRK12SimpleStringS6_S6_) refers to simplestring.o(.text._ZN12SimpleStringD2Ev) for SimpleString::~SimpleString()
    testfailure.o(.text._ZN12CheckFailureC2EP10UtestShellPKcjRK12SimpleStringS6_S6_) refers to simplestring.o(.text._ZN12SimpleStringpLERKS_) for SimpleString::operator +=(const SimpleString&)
    testfailure.o(.text._ZN12CheckFailureC2EP10UtestShellPKcjRK12SimpleStringS6_S6_) refers to simplestring.o(.text._ZN12SimpleStringpLEPKc) for SimpleString::operator +=(const char*)
    testfailure.o(.text._ZN12CheckFailureC2EP10UtestShellPKcjRK12SimpleStringS6_S6_) refers to testfailure.o(.rodata._ZTV12CheckFailure) for vtable for CheckFailure
    testfailure.o(.text._ZN12CheckFailureC2EP10UtestShellPKcjRK12SimpleStringS6_S6_) refers to testfailure.o(.rodata.str1.1) for .L.str.14
    testfailure.o(.ARM.exidx.text._ZN12CheckFailureC2EP10UtestShellPKcjRK12SimpleStringS6_S6_) refers to testfailure.o(.text._ZN12CheckFailureC2EP10UtestShellPKcjRK12SimpleStringS6_S6_) for [Anonymous Symbol]
    testfailure.o(.text._ZN11FailFailureC2EP10UtestShellPKcjRK12SimpleString) refers to testfailure.o(.text._ZN11TestFailureC2EP10UtestShellPKcj) for TestFailure::TestFailure__sub_object(UtestShell*, const char*, unsigned)
    testfailure.o(.text._ZN11FailFailureC2EP10UtestShellPKcjRK12SimpleString) refers to simplestring.o(.text._ZN12SimpleStringaSERKS_) for SimpleString::operator =(const SimpleString&)
    testfailure.o(.text._ZN11FailFailureC2EP10UtestShellPKcjRK12SimpleString) refers to testfailure.o(.rodata._ZTV11FailFailure) for vtable for FailFailure
    testfailure.o(.ARM.exidx.text._ZN11FailFailureC2EP10UtestShellPKcjRK12SimpleString) refers to testfailure.o(.text._ZN11FailFailureC2EP10UtestShellPKcjRK12SimpleString) for [Anonymous Symbol]
    testfailure.o(.text._ZN17LongsEqualFailureC2EP10UtestShellPKcjllRK12SimpleString) refers to testfailure.o(.text._ZN11TestFailureC2EP10UtestShellPKcj) for TestFailure::TestFailure__sub_object(UtestShell*, const char*, unsigned)
    testfailure.o(.text._ZN17LongsEqualFailureC2EP10UtestShellPKcjllRK12SimpleString) refers to testfailure.o(.text._ZN11TestFailure14createUserTextERK12SimpleString) for TestFailure::createUserText(const SimpleString&)
    testfailure.o(.text._ZN17LongsEqualFailureC2EP10UtestShellPKcjllRK12SimpleString) refers to simplestring.o(.text._ZN12SimpleStringaSERKS_) for SimpleString::operator =(const SimpleString&)
    testfailure.o(.text._ZN17LongsEqualFailureC2EP10UtestShellPKcjllRK12SimpleString) refers to simplestring.o(.text._Z10StringFroml) for StringFrom(long)
    testfailure.o(.text._ZN17LongsEqualFailureC2EP10UtestShellPKcjllRK12SimpleString) refers to simplestring.o(.text._ZN12SimpleString22padStringsToSameLengthERS_S0_c) for SimpleString::padStringsToSameLength(SimpleString&, SimpleString&, char)
    testfailure.o(.text._ZN17LongsEqualFailureC2EP10UtestShellPKcjllRK12SimpleString) refers to simplestring.o(.text._ZN12SimpleStringC2EPKc) for SimpleString::SimpleString(const char*)
    testfailure.o(.text._ZN17LongsEqualFailureC2EP10UtestShellPKcjllRK12SimpleString) refers to simplestring.o(.text._Z30BracketsFormattedHexStringFroml) for BracketsFormattedHexStringFrom(long)
    testfailure.o(.text._ZN17LongsEqualFailureC2EP10UtestShellPKcjllRK12SimpleString) refers to testfailure.o(.text._ZN11TestFailure18createButWasStringERK12SimpleStringS2_) for TestFailure::createButWasString(const SimpleString&, const SimpleString&)
    testfailure.o(.text._ZN17LongsEqualFailureC2EP10UtestShellPKcjllRK12SimpleString) refers to simplestring.o(.text._ZN12SimpleStringpLERKS_) for SimpleString::operator +=(const SimpleString&)
    testfailure.o(.text._ZN17LongsEqualFailureC2EP10UtestShellPKcjllRK12SimpleString) refers to testfailure.o(.rodata._ZTV17LongsEqualFailure) for vtable for LongsEqualFailure
    testfailure.o(.text._ZN17LongsEqualFailureC2EP10UtestShellPKcjllRK12SimpleString) refers to simplestring.o(.text._ZN12SimpleStringD2Ev) for SimpleString::~SimpleString()
    testfailure.o(.text._ZN17LongsEqualFailureC2EP10UtestShellPKcjllRK12SimpleString) refers to testfailure.o(.rodata.str1.1) for .L.str.3
    testfailure.o(.text._ZN17LongsEqualFailureC2EP10UtestShellPKcjllRK12SimpleString) refers to simplestring.o(.text._ZNK12SimpleStringplERKS_) for SimpleString::operator +(const SimpleString&) const
    testfailure.o(.ARM.exidx.text._ZN17LongsEqualFailureC2EP10UtestShellPKcjllRK12SimpleString) refers to testfailure.o(.text._ZN17LongsEqualFailureC2EP10UtestShellPKcjllRK12SimpleString) for [Anonymous Symbol]
    testfailure.o(.text._ZN25UnsignedLongsEqualFailureC2EP10UtestShellPKcjmmRK12SimpleString) refers to testfailure.o(.text._ZN11TestFailureC2EP10UtestShellPKcj) for TestFailure::TestFailure__sub_object(UtestShell*, const char*, unsigned)
    testfailure.o(.text._ZN25UnsignedLongsEqualFailureC2EP10UtestShellPKcjmmRK12SimpleString) refers to testfailure.o(.text._ZN11TestFailure14createUserTextERK12SimpleString) for TestFailure::createUserText(const SimpleString&)
    testfailure.o(.text._ZN25UnsignedLongsEqualFailureC2EP10UtestShellPKcjmmRK12SimpleString) refers to simplestring.o(.text._ZN12SimpleStringaSERKS_) for SimpleString::operator =(const SimpleString&)
    testfailure.o(.text._ZN25UnsignedLongsEqualFailureC2EP10UtestShellPKcjmmRK12SimpleString) refers to simplestring.o(.text._Z10StringFromm) for StringFrom(unsigned long)
    testfailure.o(.text._ZN25UnsignedLongsEqualFailureC2EP10UtestShellPKcjmmRK12SimpleString) refers to simplestring.o(.text._ZN12SimpleString22padStringsToSameLengthERS_S0_c) for SimpleString::padStringsToSameLength(SimpleString&, SimpleString&, char)
    testfailure.o(.text._ZN25UnsignedLongsEqualFailureC2EP10UtestShellPKcjmmRK12SimpleString) refers to simplestring.o(.text._ZN12SimpleStringC2EPKc) for SimpleString::SimpleString(const char*)
    testfailure.o(.text._ZN25UnsignedLongsEqualFailureC2EP10UtestShellPKcjmmRK12SimpleString) refers to simplestring.o(.text._Z30BracketsFormattedHexStringFromm) for BracketsFormattedHexStringFrom(unsigned long)
    testfailure.o(.text._ZN25UnsignedLongsEqualFailureC2EP10UtestShellPKcjmmRK12SimpleString) refers to testfailure.o(.text._ZN11TestFailure18createButWasStringERK12SimpleStringS2_) for TestFailure::createButWasString(const SimpleString&, const SimpleString&)
    testfailure.o(.text._ZN25UnsignedLongsEqualFailureC2EP10UtestShellPKcjmmRK12SimpleString) refers to simplestring.o(.text._ZN12SimpleStringpLERKS_) for SimpleString::operator +=(const SimpleString&)
    testfailure.o(.text._ZN25UnsignedLongsEqualFailureC2EP10UtestShellPKcjmmRK12SimpleString) refers to testfailure.o(.rodata._ZTV25UnsignedLongsEqualFailure) for vtable for UnsignedLongsEqualFailure
    testfailure.o(.text._ZN25UnsignedLongsEqualFailureC2EP10UtestShellPKcjmmRK12SimpleString) refers to simplestring.o(.text._ZN12SimpleStringD2Ev) for SimpleString::~SimpleString()
    testfailure.o(.text._ZN25UnsignedLongsEqualFailureC2EP10UtestShellPKcjmmRK12SimpleString) refers to testfailure.o(.rodata.str1.1) for .L.str.3
    testfailure.o(.text._ZN25UnsignedLongsEqualFailureC2EP10UtestShellPKcjmmRK12SimpleString) refers to simplestring.o(.text._ZNK12SimpleStringplERKS_) for SimpleString::operator +(const SimpleString&) const
    testfailure.o(.ARM.exidx.text._ZN25UnsignedLongsEqualFailureC2EP10UtestShellPKcjmmRK12SimpleString) refers to testfailure.o(.text._ZN25UnsignedLongsEqualFailureC2EP10UtestShellPKcjmmRK12SimpleString) for [Anonymous Symbol]
    testfailure.o(.text._ZN21LongLongsEqualFailureC2EP10UtestShellPKcjxxRK12SimpleString) refers to testfailure.o(.text._ZN11TestFailureC2EP10UtestShellPKcj) for TestFailure::TestFailure__sub_object(UtestShell*, const char*, unsigned)
    testfailure.o(.text._ZN21LongLongsEqualFailureC2EP10UtestShellPKcjxxRK12SimpleString) refers to testfailure.o(.text._ZN11TestFailure14createUserTextERK12SimpleString) for TestFailure::createUserText(const SimpleString&)
    testfailure.o(.text._ZN21LongLongsEqualFailureC2EP10UtestShellPKcjxxRK12SimpleString) refers to simplestring.o(.text._ZN12SimpleStringaSERKS_) for SimpleString::operator =(const SimpleString&)
    testfailure.o(.text._ZN21LongLongsEqualFailureC2EP10UtestShellPKcjxxRK12SimpleString) refers to simplestring.o(.text._Z10StringFromx) for StringFrom(long long)
    testfailure.o(.text._ZN21LongLongsEqualFailureC2EP10UtestShellPKcjxxRK12SimpleString) refers to simplestring.o(.text._ZN12SimpleString22padStringsToSameLengthERS_S0_c) for SimpleString::padStringsToSameLength(SimpleString&, SimpleString&, char)
    testfailure.o(.text._ZN21LongLongsEqualFailureC2EP10UtestShellPKcjxxRK12SimpleString) refers to simplestring.o(.text._ZN12SimpleStringC2EPKc) for SimpleString::SimpleString(const char*)
    testfailure.o(.text._ZN21LongLongsEqualFailureC2EP10UtestShellPKcjxxRK12SimpleString) refers to simplestring.o(.text._Z30BracketsFormattedHexStringFromx) for BracketsFormattedHexStringFrom(long long)
    testfailure.o(.text._ZN21LongLongsEqualFailureC2EP10UtestShellPKcjxxRK12SimpleString) refers to testfailure.o(.text._ZN11TestFailure18createButWasStringERK12SimpleStringS2_) for TestFailure::createButWasString(const SimpleString&, const SimpleString&)
    testfailure.o(.text._ZN21LongLongsEqualFailureC2EP10UtestShellPKcjxxRK12SimpleString) refers to simplestring.o(.text._ZN12SimpleStringpLERKS_) for SimpleString::operator +=(const SimpleString&)
    testfailure.o(.text._ZN21LongLongsEqualFailureC2EP10UtestShellPKcjxxRK12SimpleString) refers to testfailure.o(.rodata._ZTV21LongLongsEqualFailure) for vtable for LongLongsEqualFailure
    testfailure.o(.text._ZN21LongLongsEqualFailureC2EP10UtestShellPKcjxxRK12SimpleString) refers to simplestring.o(.text._ZN12SimpleStringD2Ev) for SimpleString::~SimpleString()
    testfailure.o(.text._ZN21LongLongsEqualFailureC2EP10UtestShellPKcjxxRK12SimpleString) refers to testfailure.o(.rodata.str1.1) for .L.str.3
    testfailure.o(.text._ZN21LongLongsEqualFailureC2EP10UtestShellPKcjxxRK12SimpleString) refers to simplestring.o(.text._ZNK12SimpleStringplERKS_) for SimpleString::operator +(const SimpleString&) const
    testfailure.o(.ARM.exidx.text._ZN21LongLongsEqualFailureC2EP10UtestShellPKcjxxRK12SimpleString) refers to testfailure.o(.text._ZN21LongLongsEqualFailureC2EP10UtestShellPKcjxxRK12SimpleString) for [Anonymous Symbol]
    testfailure.o(.text._ZN29UnsignedLongLongsEqualFailureC2EP10UtestShellPKcjyyRK12SimpleString) refers to testfailure.o(.text._ZN11TestFailureC2EP10UtestShellPKcj) for TestFailure::TestFailure__sub_object(UtestShell*, const char*, unsigned)
    testfailure.o(.text._ZN29UnsignedLongLongsEqualFailureC2EP10UtestShellPKcjyyRK12SimpleString) refers to testfailure.o(.text._ZN11TestFailure14createUserTextERK12SimpleString) for TestFailure::createUserText(const SimpleString&)
    testfailure.o(.text._ZN29UnsignedLongLongsEqualFailureC2EP10UtestShellPKcjyyRK12SimpleString) refers to simplestring.o(.text._ZN12SimpleStringaSERKS_) for SimpleString::operator =(const SimpleString&)
    testfailure.o(.text._ZN29UnsignedLongLongsEqualFailureC2EP10UtestShellPKcjyyRK12SimpleString) refers to simplestring.o(.text._Z10StringFromy) for StringFrom(unsigned long long)
    testfailure.o(.text._ZN29UnsignedLongLongsEqualFailureC2EP10UtestShellPKcjyyRK12SimpleString) refers to simplestring.o(.text._ZN12SimpleString22padStringsToSameLengthERS_S0_c) for SimpleString::padStringsToSameLength(SimpleString&, SimpleString&, char)
    testfailure.o(.text._ZN29UnsignedLongLongsEqualFailureC2EP10UtestShellPKcjyyRK12SimpleString) refers to simplestring.o(.text._ZN12SimpleStringC2EPKc) for SimpleString::SimpleString(const char*)
    testfailure.o(.text._ZN29UnsignedLongLongsEqualFailureC2EP10UtestShellPKcjyyRK12SimpleString) refers to simplestring.o(.text._Z30BracketsFormattedHexStringFromy) for BracketsFormattedHexStringFrom(unsigned long long)
    testfailure.o(.text._ZN29UnsignedLongLongsEqualFailureC2EP10UtestShellPKcjyyRK12SimpleString) refers to testfailure.o(.text._ZN11TestFailure18createButWasStringERK12SimpleStringS2_) for TestFailure::createButWasString(const SimpleString&, const SimpleString&)
    testfailure.o(.text._ZN29UnsignedLongLongsEqualFailureC2EP10UtestShellPKcjyyRK12SimpleString) refers to simplestring.o(.text._ZN12SimpleStringpLERKS_) for SimpleString::operator +=(const SimpleString&)
    testfailure.o(.text._ZN29UnsignedLongLongsEqualFailureC2EP10UtestShellPKcjyyRK12SimpleString) refers to testfailure.o(.rodata._ZTV29UnsignedLongLongsEqualFailure) for vtable for UnsignedLongLongsEqualFailure
    testfailure.o(.text._ZN29UnsignedLongLongsEqualFailureC2EP10UtestShellPKcjyyRK12SimpleString) refers to simplestring.o(.text._ZN12SimpleStringD2Ev) for SimpleString::~SimpleString()
    testfailure.o(.text._ZN29UnsignedLongLongsEqualFailureC2EP10UtestShellPKcjyyRK12SimpleString) refers to testfailure.o(.rodata.str1.1) for .L.str.3
    testfailure.o(.text._ZN29UnsignedLongLongsEqualFailureC2EP10UtestShellPKcjyyRK12SimpleString) refers to simplestring.o(.text._ZNK12SimpleStringplERKS_) for SimpleString::operator +(const SimpleString&) const
    testfailure.o(.ARM.exidx.text._ZN29UnsignedLongLongsEqualFailureC2EP10UtestShellPKcjyyRK12SimpleString) refers to testfailure.o(.text._ZN29UnsignedLongLongsEqualFailureC2EP10UtestShellPKcjyyRK12SimpleString) for [Anonymous Symbol]
    testfailure.o(.text._ZN23SignedBytesEqualFailureC2EP10UtestShellPKcjaaRK12SimpleString) refers to testfailure.o(.text._ZN11TestFailureC2EP10UtestShellPKcj) for TestFailure::TestFailure__sub_object(UtestShell*, const char*, unsigned)
    testfailure.o(.text._ZN23SignedBytesEqualFailureC2EP10UtestShellPKcjaaRK12SimpleString) refers to testfailure.o(.text._ZN11TestFailure14createUserTextERK12SimpleString) for TestFailure::createUserText(const SimpleString&)
    testfailure.o(.text._ZN23SignedBytesEqualFailureC2EP10UtestShellPKcjaaRK12SimpleString) refers to simplestring.o(.text._ZN12SimpleStringaSERKS_) for SimpleString::operator =(const SimpleString&)
    testfailure.o(.text._ZN23SignedBytesEqualFailureC2EP10UtestShellPKcjaaRK12SimpleString) refers to simplestring.o(.text._Z10StringFromi) for StringFrom(int)
    testfailure.o(.text._ZN23SignedBytesEqualFailureC2EP10UtestShellPKcjaaRK12SimpleString) refers to simplestring.o(.text._ZN12SimpleString22padStringsToSameLengthERS_S0_c) for SimpleString::padStringsToSameLength(SimpleString&, SimpleString&, char)
    testfailure.o(.text._ZN23SignedBytesEqualFailureC2EP10UtestShellPKcjaaRK12SimpleString) refers to simplestring.o(.text._ZN12SimpleStringC2EPKc) for SimpleString::SimpleString(const char*)
    testfailure.o(.text._ZN23SignedBytesEqualFailureC2EP10UtestShellPKcjaaRK12SimpleString) refers to simplestring.o(.text._Z30BracketsFormattedHexStringFroma) for BracketsFormattedHexStringFrom(signed char)
    testfailure.o(.text._ZN23SignedBytesEqualFailureC2EP10UtestShellPKcjaaRK12SimpleString) refers to testfailure.o(.text._ZN11TestFailure18createButWasStringERK12SimpleStringS2_) for TestFailure::createButWasString(const SimpleString&, const SimpleString&)
    testfailure.o(.text._ZN23SignedBytesEqualFailureC2EP10UtestShellPKcjaaRK12SimpleString) refers to simplestring.o(.text._ZN12SimpleStringpLERKS_) for SimpleString::operator +=(const SimpleString&)
    testfailure.o(.text._ZN23SignedBytesEqualFailureC2EP10UtestShellPKcjaaRK12SimpleString) refers to testfailure.o(.rodata._ZTV23SignedBytesEqualFailure) for vtable for SignedBytesEqualFailure
    testfailure.o(.text._ZN23SignedBytesEqualFailureC2EP10UtestShellPKcjaaRK12SimpleString) refers to simplestring.o(.text._ZN12SimpleStringD2Ev) for SimpleString::~SimpleString()
    testfailure.o(.text._ZN23SignedBytesEqualFailureC2EP10UtestShellPKcjaaRK12SimpleString) refers to testfailure.o(.rodata.str1.1) for .L.str.3
    testfailure.o(.text._ZN23SignedBytesEqualFailureC2EP10UtestShellPKcjaaRK12SimpleString) refers to simplestring.o(.text._ZNK12SimpleStringplERKS_) for SimpleString::operator +(const SimpleString&) const
    testfailure.o(.ARM.exidx.text._ZN23SignedBytesEqualFailureC2EP10UtestShellPKcjaaRK12SimpleString) refers to testfailure.o(.text._ZN23SignedBytesEqualFailureC2EP10UtestShellPKcjaaRK12SimpleString) for [Anonymous Symbol]
    testfailure.o(.text._ZN18StringEqualFailureC2EP10UtestShellPKcjS3_S3_RK12SimpleString) refers to testfailure.o(.text._ZN11TestFailureC2EP10UtestShellPKcj) for TestFailure::TestFailure__sub_object(UtestShell*, const char*, unsigned)
    testfailure.o(.text._ZN18StringEqualFailureC2EP10UtestShellPKcjS3_S3_RK12SimpleString) refers to testfailure.o(.text._ZN11TestFailure14createUserTextERK12SimpleString) for TestFailure::createUserText(const SimpleString&)
    testfailure.o(.text._ZN18StringEqualFailureC2EP10UtestShellPKcjS3_S3_RK12SimpleString) refers to simplestring.o(.text._ZN12SimpleStringaSERKS_) for SimpleString::operator =(const SimpleString&)
    testfailure.o(.text._ZN18StringEqualFailureC2EP10UtestShellPKcjS3_S3_RK12SimpleString) refers to simplestring.o(.text._ZN12SimpleStringD2Ev) for SimpleString::~SimpleString()
    testfailure.o(.text._ZN18StringEqualFailureC2EP10UtestShellPKcjS3_S3_RK12SimpleString) refers to simplestring.o(.text._Z25PrintableStringFromOrNullPKc) for PrintableStringFromOrNull(const char*)
    testfailure.o(.text._ZN18StringEqualFailureC2EP10UtestShellPKcjS3_S3_RK12SimpleString) refers to testfailure.o(.text._ZN11TestFailure18createButWasStringERK12SimpleStringS2_) for TestFailure::createButWasString(const SimpleString&, const SimpleString&)
    testfailure.o(.text._ZN18StringEqualFailureC2EP10UtestShellPKcjS3_S3_RK12SimpleString) refers to simplestring.o(.text._ZN12SimpleStringpLERKS_) for SimpleString::operator +=(const SimpleString&)
    testfailure.o(.text._ZN18StringEqualFailureC2EP10UtestShellPKcjS3_S3_RK12SimpleString) refers to simplestring.o(.text._ZNK12SimpleString2atEj) for SimpleString::at(unsigned) const
    testfailure.o(.text._ZN18StringEqualFailureC2EP10UtestShellPKcjS3_S3_RK12SimpleString) refers to testfailure.o(.text._ZN11TestFailure27createDifferenceAtPosStringERK12SimpleStringjj) for TestFailure::createDifferenceAtPosString(const SimpleString&, unsigned, unsigned)
    testfailure.o(.text._ZN18StringEqualFailureC2EP10UtestShellPKcjS3_S3_RK12SimpleString) refers to testfailure.o(.rodata._ZTV18StringEqualFailure) for vtable for StringEqualFailure
    testfailure.o(.ARM.exidx.text._ZN18StringEqualFailureC2EP10UtestShellPKcjS3_S3_RK12SimpleString) refers to testfailure.o(.text._ZN18StringEqualFailureC2EP10UtestShellPKcjS3_S3_RK12SimpleString) for [Anonymous Symbol]
    testfailure.o(.text._ZN24StringEqualNoCaseFailureC2EP10UtestShellPKcjS3_S3_RK12SimpleString) refers to testfailure.o(.text._ZN11TestFailureC2EP10UtestShellPKcj) for TestFailure::TestFailure__sub_object(UtestShell*, const char*, unsigned)
    testfailure.o(.text._ZN24StringEqualNoCaseFailureC2EP10UtestShellPKcjS3_S3_RK12SimpleString) refers to testfailure.o(.text._ZN11TestFailure14createUserTextERK12SimpleString) for TestFailure::createUserText(const SimpleString&)
    testfailure.o(.text._ZN24StringEqualNoCaseFailureC2EP10UtestShellPKcjS3_S3_RK12SimpleString) refers to simplestring.o(.text._ZN12SimpleStringaSERKS_) for SimpleString::operator =(const SimpleString&)
    testfailure.o(.text._ZN24StringEqualNoCaseFailureC2EP10UtestShellPKcjS3_S3_RK12SimpleString) refers to simplestring.o(.text._ZN12SimpleStringD2Ev) for SimpleString::~SimpleString()
    testfailure.o(.text._ZN24StringEqualNoCaseFailureC2EP10UtestShellPKcjS3_S3_RK12SimpleString) refers to simplestring.o(.text._Z25PrintableStringFromOrNullPKc) for PrintableStringFromOrNull(const char*)
    testfailure.o(.text._ZN24StringEqualNoCaseFailureC2EP10UtestShellPKcjS3_S3_RK12SimpleString) refers to testfailure.o(.text._ZN11TestFailure18createButWasStringERK12SimpleStringS2_) for TestFailure::createButWasString(const SimpleString&, const SimpleString&)
    testfailure.o(.text._ZN24StringEqualNoCaseFailureC2EP10UtestShellPKcjS3_S3_RK12SimpleString) refers to simplestring.o(.text._ZN12SimpleStringpLERKS_) for SimpleString::operator +=(const SimpleString&)
    testfailure.o(.text._ZN24StringEqualNoCaseFailureC2EP10UtestShellPKcjS3_S3_RK12SimpleString) refers to simplestring.o(.text._ZN12SimpleString7ToLowerEc) for SimpleString::ToLower(char)
    testfailure.o(.text._ZN24StringEqualNoCaseFailureC2EP10UtestShellPKcjS3_S3_RK12SimpleString) refers to simplestring.o(.text._ZNK12SimpleString2atEj) for SimpleString::at(unsigned) const
    testfailure.o(.text._ZN24StringEqualNoCaseFailureC2EP10UtestShellPKcjS3_S3_RK12SimpleString) refers to testfailure.o(.text._ZN11TestFailure27createDifferenceAtPosStringERK12SimpleStringjj) for TestFailure::createDifferenceAtPosString(const SimpleString&, unsigned, unsigned)
    testfailure.o(.text._ZN24StringEqualNoCaseFailureC2EP10UtestShellPKcjS3_S3_RK12SimpleString) refers to testfailure.o(.rodata._ZTV24StringEqualNoCaseFailure) for vtable for StringEqualNoCaseFailure
    testfailure.o(.ARM.exidx.text._ZN24StringEqualNoCaseFailureC2EP10UtestShellPKcjS3_S3_RK12SimpleString) refers to testfailure.o(.text._ZN24StringEqualNoCaseFailureC2EP10UtestShellPKcjS3_S3_RK12SimpleString) for [Anonymous Symbol]
    testfailure.o(.text._ZN18BinaryEqualFailureC2EP10UtestShellPKcjPKhS5_jRK12SimpleString) refers to testfailure.o(.text._ZN11TestFailureC2EP10UtestShellPKcj) for TestFailure::TestFailure__sub_object(UtestShell*, const char*, unsigned)
    testfailure.o(.text._ZN18BinaryEqualFailureC2EP10UtestShellPKcjPKhS5_jRK12SimpleString) refers to testfailure.o(.text._ZN11TestFailure14createUserTextERK12SimpleString) for TestFailure::createUserText(const SimpleString&)
    testfailure.o(.text._ZN18BinaryEqualFailureC2EP10UtestShellPKcjPKhS5_jRK12SimpleString) refers to simplestring.o(.text._ZN12SimpleStringaSERKS_) for SimpleString::operator =(const SimpleString&)
    testfailure.o(.text._ZN18BinaryEqualFailureC2EP10UtestShellPKcjPKhS5_jRK12SimpleString) refers to simplestring.o(.text._Z22StringFromBinaryOrNullPKhj) for StringFromBinaryOrNull(const unsigned char*, unsigned)
    testfailure.o(.text._ZN18BinaryEqualFailureC2EP10UtestShellPKcjPKhS5_jRK12SimpleString) refers to testfailure.o(.text._ZN11TestFailure18createButWasStringERK12SimpleStringS2_) for TestFailure::createButWasString(const SimpleString&, const SimpleString&)
    testfailure.o(.text._ZN18BinaryEqualFailureC2EP10UtestShellPKcjPKhS5_jRK12SimpleString) refers to simplestring.o(.text._ZN12SimpleStringpLERKS_) for SimpleString::operator +=(const SimpleString&)
    testfailure.o(.text._ZN18BinaryEqualFailureC2EP10UtestShellPKcjPKhS5_jRK12SimpleString) refers to testfailure.o(.text._ZN11TestFailure27createDifferenceAtPosStringERK12SimpleStringjj) for TestFailure::createDifferenceAtPosString(const SimpleString&, unsigned, unsigned)
    testfailure.o(.text._ZN18BinaryEqualFailureC2EP10UtestShellPKcjPKhS5_jRK12SimpleString) refers to simplestring.o(.text._ZN12SimpleStringD2Ev) for SimpleString::~SimpleString()
    testfailure.o(.text._ZN18BinaryEqualFailureC2EP10UtestShellPKcjPKhS5_jRK12SimpleString) refers to testfailure.o(.rodata._ZTV18BinaryEqualFailure) for vtable for BinaryEqualFailure
    testfailure.o(.ARM.exidx.text._ZN18BinaryEqualFailureC2EP10UtestShellPKcjPKhS5_jRK12SimpleString) refers to testfailure.o(.text._ZN18BinaryEqualFailureC2EP10UtestShellPKcjPKhS5_jRK12SimpleString) for [Anonymous Symbol]
    testfailure.o(.text._ZN16BitsEqualFailureC2EP10UtestShellPKcjmmmjRK12SimpleString) refers to testfailure.o(.text._ZN11TestFailureC2EP10UtestShellPKcj) for TestFailure::TestFailure__sub_object(UtestShell*, const char*, unsigned)
    testfailure.o(.text._ZN16BitsEqualFailureC2EP10UtestShellPKcjmmmjRK12SimpleString) refers to testfailure.o(.text._ZN11TestFailure14createUserTextERK12SimpleString) for TestFailure::createUserText(const SimpleString&)
    testfailure.o(.text._ZN16BitsEqualFailureC2EP10UtestShellPKcjmmmjRK12SimpleString) refers to simplestring.o(.text._ZN12SimpleStringaSERKS_) for SimpleString::operator =(const SimpleString&)
    testfailure.o(.text._ZN16BitsEqualFailureC2EP10UtestShellPKcjmmmjRK12SimpleString) refers to simplestring.o(.text._Z20StringFromMaskedBitsmmj) for StringFromMaskedBits(unsigned long, unsigned long, unsigned)
    testfailure.o(.text._ZN16BitsEqualFailureC2EP10UtestShellPKcjmmmjRK12SimpleString) refers to testfailure.o(.text._ZN11TestFailure18createButWasStringERK12SimpleStringS2_) for TestFailure::createButWasString(const SimpleString&, const SimpleString&)
    testfailure.o(.text._ZN16BitsEqualFailureC2EP10UtestShellPKcjmmmjRK12SimpleString) refers to simplestring.o(.text._ZN12SimpleStringpLERKS_) for SimpleString::operator +=(const SimpleString&)
    testfailure.o(.text._ZN16BitsEqualFailureC2EP10UtestShellPKcjmmmjRK12SimpleString) refers to testfailure.o(.rodata._ZTV16BitsEqualFailure) for vtable for BitsEqualFailure
    testfailure.o(.text._ZN16BitsEqualFailureC2EP10UtestShellPKcjmmmjRK12SimpleString) refers to simplestring.o(.text._ZN12SimpleStringD2Ev) for SimpleString::~SimpleString()
    testfailure.o(.ARM.exidx.text._ZN16BitsEqualFailureC2EP10UtestShellPKcjmmmjRK12SimpleString) refers to testfailure.o(.text._ZN16BitsEqualFailureC2EP10UtestShellPKcjmmmjRK12SimpleString) for [Anonymous Symbol]
    testfailure.o(.text._ZN25FeatureUnsupportedFailureC2EP10UtestShellPKcjRK12SimpleStringS6_) refers to testfailure.o(.text._ZN11TestFailureC2EP10UtestShellPKcj) for TestFailure::TestFailure__sub_object(UtestShell*, const char*, unsigned)
    testfailure.o(.text._ZN25FeatureUnsupportedFailureC2EP10UtestShellPKcjRK12SimpleStringS6_) refers to testfailure.o(.text._ZN11TestFailure14createUserTextERK12SimpleString) for TestFailure::createUserText(const SimpleString&)
    testfailure.o(.text._ZN25FeatureUnsupportedFailureC2EP10UtestShellPKcjRK12SimpleStringS6_) refers to simplestring.o(.text._ZN12SimpleStringaSERKS_) for SimpleString::operator =(const SimpleString&)
    testfailure.o(.text._ZN25FeatureUnsupportedFailureC2EP10UtestShellPKcjRK12SimpleStringS6_) refers to simplestring.o(.text._ZN12SimpleStringD2Ev) for SimpleString::~SimpleString()
    testfailure.o(.text._ZN25FeatureUnsupportedFailureC2EP10UtestShellPKcjRK12SimpleStringS6_) refers to simplestring.o(.text._ZNK12SimpleString12asCharStringEv) for SimpleString::asCharString() const
    testfailure.o(.text._ZN25FeatureUnsupportedFailureC2EP10UtestShellPKcjRK12SimpleStringS6_) refers to simplestring.o(.text._Z16StringFromFormatPKcz) for StringFromFormat(const char*, ...)
    testfailure.o(.text._ZN25FeatureUnsupportedFailureC2EP10UtestShellPKcjRK12SimpleStringS6_) refers to simplestring.o(.text._ZN12SimpleStringpLERKS_) for SimpleString::operator +=(const SimpleString&)
    testfailure.o(.text._ZN25FeatureUnsupportedFailureC2EP10UtestShellPKcjRK12SimpleStringS6_) refers to testfailure.o(.rodata._ZTV25FeatureUnsupportedFailure) for vtable for FeatureUnsupportedFailure
    testfailure.o(.text._ZN25FeatureUnsupportedFailureC2EP10UtestShellPKcjRK12SimpleStringS6_) refers to testfailure.o(.rodata.str1.1) for .L.str.17
    testfailure.o(.ARM.exidx.text._ZN25FeatureUnsupportedFailureC2EP10UtestShellPKcjRK12SimpleStringS6_) refers to testfailure.o(.text._ZN25FeatureUnsupportedFailureC2EP10UtestShellPKcjRK12SimpleStringS6_) for [Anonymous Symbol]
    testfailure.o(.text._ZN11TestFailureD2Ev) refers to testfailure.o(.rodata._ZTV11TestFailure) for vtable for TestFailure
    testfailure.o(.text._ZN11TestFailureD2Ev) refers to simplestring.o(.text._ZN12SimpleStringD2Ev) for SimpleString::~SimpleString()
    testfailure.o(.ARM.exidx.text._ZN11TestFailureD2Ev) refers to testfailure.o(.text._ZN11TestFailureD2Ev) for [Anonymous Symbol]
    testfailure.o(.rodata._ZTV11TestFailure) refers to testfailure.o(.rodata._ZTI11TestFailure) for typeinfo for TestFailure
    testfailure.o(.rodata._ZTV11TestFailure) refers to testfailure.o(.text._ZN11TestFailureD2Ev) for TestFailure::~TestFailure__sub_object()
    testfailure.o(.rodata._ZTV11TestFailure) refers to testfailure.o(.text._ZN11TestFailureD0Ev) for TestFailure::~TestFailure__deallocating()
    testfailure.o(.rodata._ZTV11TestFailure) refers to testfailure.o(.text._ZNK11TestFailure11getFileNameEv) for TestFailure::getFileName() const
    testfailure.o(.rodata._ZTV11TestFailure) refers to testfailure.o(.text._ZNK11TestFailure11getTestNameEv) for TestFailure::getTestName() const
    testfailure.o(.rodata._ZTV11TestFailure) refers to testfailure.o(.text._ZNK11TestFailure15getTestNameOnlyEv) for TestFailure::getTestNameOnly() const
    testfailure.o(.rodata._ZTV11TestFailure) refers to testfailure.o(.text._ZNK11TestFailure20getFailureLineNumberEv) for TestFailure::getFailureLineNumber() const
    testfailure.o(.rodata._ZTV11TestFailure) refers to testfailure.o(.text._ZNK11TestFailure10getMessageEv) for TestFailure::getMessage() const
    testfailure.o(.rodata._ZTV11TestFailure) refers to testfailure.o(.text._ZNK11TestFailure15getTestFileNameEv) for TestFailure::getTestFileName() const
    testfailure.o(.rodata._ZTV11TestFailure) refers to testfailure.o(.text._ZNK11TestFailure17getTestLineNumberEv) for TestFailure::getTestLineNumber() const
    testfailure.o(.rodata._ZTI11TestFailure) refers to private_typeinfo.cpp.o(.rodata._ZTVN10__cxxabiv117__class_type_infoE) for vtable for __cxxabiv1::__class_type_info
    testfailure.o(.rodata._ZTI11TestFailure) refers to testfailure.o(.rodata._ZTS11TestFailure) for typeinfo name for TestFailure
    testfilter.o(.text._ZN10TestFilterC2Ev) refers to simplestring.o(.text._ZN12SimpleStringC2EPKc) for SimpleString::SimpleString(const char*)
    testfilter.o(.text._ZN10TestFilterC2Ev) refers to testfilter.o(.rodata.str1.1) for .L.str
    testfilter.o(.ARM.exidx.text._ZN10TestFilterC2Ev) refers to testfilter.o(.text._ZN10TestFilterC2Ev) for [Anonymous Symbol]
    testfilter.o(.text._ZN10TestFilterC2ERK12SimpleString) refers to simplestring.o(.text._ZN12SimpleStringC2EPKc) for SimpleString::SimpleString(const char*)
    testfilter.o(.text._ZN10TestFilterC2ERK12SimpleString) refers to simplestring.o(.text._ZN12SimpleStringaSERKS_) for SimpleString::operator =(const SimpleString&)
    testfilter.o(.text._ZN10TestFilterC2ERK12SimpleString) refers to testfilter.o(.rodata.str1.1) for .L.str
    testfilter.o(.ARM.exidx.text._ZN10TestFilterC2ERK12SimpleString) refers to testfilter.o(.text._ZN10TestFilterC2ERK12SimpleString) for [Anonymous Symbol]
    testfilter.o(.text._ZN10TestFilterC2EPKc) refers to simplestring.o(.text._ZN12SimpleStringC2EPKc) for SimpleString::SimpleString(const char*)
    testfilter.o(.text._ZN10TestFilterC2EPKc) refers to simplestring.o(.text._ZN12SimpleStringaSERKS_) for SimpleString::operator =(const SimpleString&)
    testfilter.o(.text._ZN10TestFilterC2EPKc) refers to simplestring.o(.text._ZN12SimpleStringD2Ev) for SimpleString::~SimpleString()
    testfilter.o(.text._ZN10TestFilterC2EPKc) refers to testfilter.o(.rodata.str1.1) for .L.str
    testfilter.o(.ARM.exidx.text._ZN10TestFilterC2EPKc) refers to testfilter.o(.text._ZN10TestFilterC2EPKc) for [Anonymous Symbol]
    testfilter.o(.ARM.exidx.text._ZN10TestFilter3addEPS_) refers to testfilter.o(.text._ZN10TestFilter3addEPS_) for [Anonymous Symbol]
    testfilter.o(.ARM.exidx.text._ZNK10TestFilter7getNextEv) refers to testfilter.o(.text._ZNK10TestFilter7getNextEv) for [Anonymous Symbol]
    testfilter.o(.ARM.exidx.text._ZN10TestFilter14strictMatchingEv) refers to testfilter.o(.text._ZN10TestFilter14strictMatchingEv) for [Anonymous Symbol]
    testfilter.o(.ARM.exidx.text._ZN10TestFilter14invertMatchingEv) refers to testfilter.o(.text._ZN10TestFilter14invertMatchingEv) for [Anonymous Symbol]
    testfilter.o(.text._ZNK10TestFilter5matchERK12SimpleString) refers to simplestring.o(.text._ZeqRK12SimpleStringS1_) for operator ==(const SimpleString&, const SimpleString&)
    testfilter.o(.text._ZNK10TestFilter5matchERK12SimpleString) refers to simplestring.o(.text._ZNK12SimpleString8containsERKS_) for SimpleString::contains(const SimpleString&) const
    testfilter.o(.ARM.exidx.text._ZNK10TestFilter5matchERK12SimpleString) refers to testfilter.o(.text._ZNK10TestFilter5matchERK12SimpleString) for [Anonymous Symbol]
    testfilter.o(.text._ZNK10TestFiltereqERKS_) refers to simplestring.o(.text._ZeqRK12SimpleStringS1_) for operator ==(const SimpleString&, const SimpleString&)
    testfilter.o(.ARM.exidx.text._ZNK10TestFiltereqERKS_) refers to testfilter.o(.text._ZNK10TestFiltereqERKS_) for [Anonymous Symbol]
    testfilter.o(.text._ZNK10TestFilterneERKS_) refers to testfilter.o(.text._ZNK10TestFiltereqERKS_) for TestFilter::operator ==(const TestFilter&) const
    testfilter.o(.ARM.exidx.text._ZNK10TestFilterneERKS_) refers to testfilter.o(.text._ZNK10TestFilterneERKS_) for [Anonymous Symbol]
    testfilter.o(.text._ZNK10TestFilter8asStringEv) refers to simplestring.o(.text._ZNK12SimpleString12asCharStringEv) for SimpleString::asCharString() const
    testfilter.o(.text._ZNK10TestFilter8asStringEv) refers to simplestring.o(.text._Z16StringFromFormatPKcz) for StringFromFormat(const char*, ...)
    testfilter.o(.text._ZNK10TestFilter8asStringEv) refers to simplestring.o(.text._ZN12SimpleStringpLEPKc) for SimpleString::operator +=(const char*)
    testfilter.o(.ARM.exidx.text._ZNK10TestFilter8asStringEv) refers to testfilter.o(.text._ZNK10TestFilter8asStringEv) for [Anonymous Symbol]
    testfilter.o(.text._Z10StringFromRK10TestFilter) refers to testfilter.o(.text._ZNK10TestFilter8asStringEv) for TestFilter::asString() const
    testfilter.o(.ARM.exidx.text._Z10StringFromRK10TestFilter) refers to testfilter.o(.text._Z10StringFromRK10TestFilter) for [Anonymous Symbol]
    testmemoryallocator.o(.text._Z22setCurrentNewAllocatorP19TestMemoryAllocator) refers to testmemoryallocator.o(.bss..L_MergedGlobals) for [Anonymous Symbol]
    testmemoryallocator.o(.ARM.exidx.text._Z22setCurrentNewAllocatorP19TestMemoryAllocator) refers to testmemoryallocator.o(.text._Z22setCurrentNewAllocatorP19TestMemoryAllocator) for [Anonymous Symbol]
    testmemoryallocator.o(.text._Z22getCurrentNewAllocatorv) refers to testmemoryallocator.o(.text._Z31setCurrentNewAllocatorToDefaultv) for setCurrentNewAllocatorToDefault()
    testmemoryallocator.o(.text._Z22getCurrentNewAllocatorv) refers to testmemoryallocator.o(.bss..L_MergedGlobals) for [Anonymous Symbol]
    testmemoryallocator.o(.ARM.exidx.text._Z22getCurrentNewAllocatorv) refers to testmemoryallocator.o(.text._Z22getCurrentNewAllocatorv) for [Anonymous Symbol]
    testmemoryallocator.o(.text._Z31setCurrentNewAllocatorToDefaultv) refers to testmemoryallocator.o(.text._Z19defaultNewAllocatorv) for defaultNewAllocator()
    testmemoryallocator.o(.text._Z31setCurrentNewAllocatorToDefaultv) refers to testmemoryallocator.o(.bss..L_MergedGlobals) for [Anonymous Symbol]
    testmemoryallocator.o(.ARM.exidx.text._Z31setCurrentNewAllocatorToDefaultv) refers to testmemoryallocator.o(.text._Z31setCurrentNewAllocatorToDefaultv) for [Anonymous Symbol]
    testmemoryallocator.o(.text._Z19defaultNewAllocatorv) refers to cxa_guard.cpp.o(.text.__cxa_guard_acquire) for __cxa_guard_acquire
    testmemoryallocator.o(.text._Z19defaultNewAllocatorv) refers to cxa_atexit.o(.text) for __cxa_atexit
    testmemoryallocator.o(.text._Z19defaultNewAllocatorv) refers to cxa_guard.cpp.o(.text.__cxa_guard_release) for __cxa_guard_release
    testmemoryallocator.o(.text._Z19defaultNewAllocatorv) refers to testmemoryallocator.o(.bss..L_MergedGlobals) for [Anonymous Symbol]
    testmemoryallocator.o(.text._Z19defaultNewAllocatorv) refers to testmemoryallocator.o(.rodata._ZTV19TestMemoryAllocator) for vtable for TestMemoryAllocator
    testmemoryallocator.o(.text._Z19defaultNewAllocatorv) refers to testmemoryallocator.o(.text._ZN19TestMemoryAllocatorD2Ev) for TestMemoryAllocator::~TestMemoryAllocator__sub_object()
    testmemoryallocator.o(.ARM.exidx.text._Z19defaultNewAllocatorv) refers to testmemoryallocator.o(.text._Z19defaultNewAllocatorv) for [Anonymous Symbol]
    testmemoryallocator.o(.text._Z27setCurrentNewArrayAllocatorP19TestMemoryAllocator) refers to testmemoryallocator.o(.bss..L_MergedGlobals) for [Anonymous Symbol]
    testmemoryallocator.o(.ARM.exidx.text._Z27setCurrentNewArrayAllocatorP19TestMemoryAllocator) refers to testmemoryallocator.o(.text._Z27setCurrentNewArrayAllocatorP19TestMemoryAllocator) for [Anonymous Symbol]
    testmemoryallocator.o(.text._Z27getCurrentNewArrayAllocatorv) refers to testmemoryallocator.o(.text._Z36setCurrentNewArrayAllocatorToDefaultv) for setCurrentNewArrayAllocatorToDefault()
    testmemoryallocator.o(.text._Z27getCurrentNewArrayAllocatorv) refers to testmemoryallocator.o(.bss..L_MergedGlobals) for [Anonymous Symbol]
    testmemoryallocator.o(.ARM.exidx.text._Z27getCurrentNewArrayAllocatorv) refers to testmemoryallocator.o(.text._Z27getCurrentNewArrayAllocatorv) for [Anonymous Symbol]
    testmemoryallocator.o(.text._Z36setCurrentNewArrayAllocatorToDefaultv) refers to testmemoryallocator.o(.text._Z24defaultNewArrayAllocatorv) for defaultNewArrayAllocator()
    testmemoryallocator.o(.text._Z36setCurrentNewArrayAllocatorToDefaultv) refers to testmemoryallocator.o(.bss..L_MergedGlobals) for [Anonymous Symbol]
    testmemoryallocator.o(.ARM.exidx.text._Z36setCurrentNewArrayAllocatorToDefaultv) refers to testmemoryallocator.o(.text._Z36setCurrentNewArrayAllocatorToDefaultv) for [Anonymous Symbol]
    testmemoryallocator.o(.text._Z24defaultNewArrayAllocatorv) refers to cxa_guard.cpp.o(.text.__cxa_guard_acquire) for __cxa_guard_acquire
    testmemoryallocator.o(.text._Z24defaultNewArrayAllocatorv) refers to cxa_atexit.o(.text) for __cxa_atexit
    testmemoryallocator.o(.text._Z24defaultNewArrayAllocatorv) refers to cxa_guard.cpp.o(.text.__cxa_guard_release) for __cxa_guard_release
    testmemoryallocator.o(.text._Z24defaultNewArrayAllocatorv) refers to testmemoryallocator.o(.bss..L_MergedGlobals) for [Anonymous Symbol]
    testmemoryallocator.o(.text._Z24defaultNewArrayAllocatorv) refers to testmemoryallocator.o(.rodata._ZTV19TestMemoryAllocator) for vtable for TestMemoryAllocator
    testmemoryallocator.o(.text._Z24defaultNewArrayAllocatorv) refers to testmemoryallocator.o(.text._ZN19TestMemoryAllocatorD2Ev) for TestMemoryAllocator::~TestMemoryAllocator__sub_object()
    testmemoryallocator.o(.ARM.exidx.text._Z24defaultNewArrayAllocatorv) refers to testmemoryallocator.o(.text._Z24defaultNewArrayAllocatorv) for [Anonymous Symbol]
    testmemoryallocator.o(.text._Z25setCurrentMallocAllocatorP19TestMemoryAllocator) refers to testmemoryallocator.o(.bss..L_MergedGlobals) for [Anonymous Symbol]
    testmemoryallocator.o(.ARM.exidx.text._Z25setCurrentMallocAllocatorP19TestMemoryAllocator) refers to testmemoryallocator.o(.text._Z25setCurrentMallocAllocatorP19TestMemoryAllocator) for [Anonymous Symbol]
    testmemoryallocator.o(.text._Z25getCurrentMallocAllocatorv) refers to testmemoryallocator.o(.text._Z34setCurrentMallocAllocatorToDefaultv) for setCurrentMallocAllocatorToDefault()
    testmemoryallocator.o(.text._Z25getCurrentMallocAllocatorv) refers to testmemoryallocator.o(.bss..L_MergedGlobals) for [Anonymous Symbol]
    testmemoryallocator.o(.ARM.exidx.text._Z25getCurrentMallocAllocatorv) refers to testmemoryallocator.o(.text._Z25getCurrentMallocAllocatorv) for [Anonymous Symbol]
    testmemoryallocator.o(.text._Z34setCurrentMallocAllocatorToDefaultv) refers to testmemoryallocator.o(.text._Z22defaultMallocAllocatorv) for defaultMallocAllocator()
    testmemoryallocator.o(.text._Z34setCurrentMallocAllocatorToDefaultv) refers to testmemoryallocator.o(.bss..L_MergedGlobals) for [Anonymous Symbol]
    testmemoryallocator.o(.ARM.exidx.text._Z34setCurrentMallocAllocatorToDefaultv) refers to testmemoryallocator.o(.text._Z34setCurrentMallocAllocatorToDefaultv) for [Anonymous Symbol]
    testmemoryallocator.o(.text._Z22defaultMallocAllocatorv) refers to cxa_guard.cpp.o(.text.__cxa_guard_acquire) for __cxa_guard_acquire
    testmemoryallocator.o(.text._Z22defaultMallocAllocatorv) refers to cxa_atexit.o(.text) for __cxa_atexit
    testmemoryallocator.o(.text._Z22defaultMallocAllocatorv) refers to cxa_guard.cpp.o(.text.__cxa_guard_release) for __cxa_guard_release
    testmemoryallocator.o(.text._Z22defaultMallocAllocatorv) refers to testmemoryallocator.o(.bss..L_MergedGlobals) for [Anonymous Symbol]
    testmemoryallocator.o(.text._Z22defaultMallocAllocatorv) refers to testmemoryallocator.o(.rodata._ZTV19TestMemoryAllocator) for vtable for TestMemoryAllocator
    testmemoryallocator.o(.text._Z22defaultMallocAllocatorv) refers to testmemoryallocator.o(.rodata.str1.1) for .L.str.8
    testmemoryallocator.o(.text._Z22defaultMallocAllocatorv) refers to testmemoryallocator.o(.text._ZN19TestMemoryAllocatorD2Ev) for TestMemoryAllocator::~TestMemoryAllocator__sub_object()
    testmemoryallocator.o(.ARM.exidx.text._Z22defaultMallocAllocatorv) refers to testmemoryallocator.o(.text._Z22defaultMallocAllocatorv) for [Anonymous Symbol]
    testmemoryallocator.o(.ARM.exidx.text._ZN26GlobalMemoryAllocatorStashC2Ev) refers to testmemoryallocator.o(.text._ZN26GlobalMemoryAllocatorStashC2Ev) for [Anonymous Symbol]
    testmemoryallocator.o(.text._ZN26GlobalMemoryAllocatorStash4saveEv) refers to testmemoryallocator.o(.text._Z25getCurrentMallocAllocatorv) for getCurrentMallocAllocator()
    testmemoryallocator.o(.text._ZN26GlobalMemoryAllocatorStash4saveEv) refers to testmemoryallocator.o(.text._Z22getCurrentNewAllocatorv) for getCurrentNewAllocator()
    testmemoryallocator.o(.text._ZN26GlobalMemoryAllocatorStash4saveEv) refers to testmemoryallocator.o(.text._Z27getCurrentNewArrayAllocatorv) for getCurrentNewArrayAllocator()
    testmemoryallocator.o(.ARM.exidx.text._ZN26GlobalMemoryAllocatorStash4saveEv) refers to testmemoryallocator.o(.text._ZN26GlobalMemoryAllocatorStash4saveEv) for [Anonymous Symbol]
    testmemoryallocator.o(.text._ZN26GlobalMemoryAllocatorStash7restoreEv) refers to testmemoryallocator.o(.bss..L_MergedGlobals) for [Anonymous Symbol]
    testmemoryallocator.o(.ARM.exidx.text._ZN26GlobalMemoryAllocatorStash7restoreEv) refers to testmemoryallocator.o(.text._ZN26GlobalMemoryAllocatorStash7restoreEv) for [Anonymous Symbol]
    testmemoryallocator.o(.text._ZN19TestMemoryAllocatorC2EPKcS1_S1_) refers to testmemoryallocator.o(.rodata._ZTV19TestMemoryAllocator) for vtable for TestMemoryAllocator
    testmemoryallocator.o(.ARM.exidx.text._ZN19TestMemoryAllocatorC2EPKcS1_S1_) refers to testmemoryallocator.o(.text._ZN19TestMemoryAllocatorC2EPKcS1_S1_) for [Anonymous Symbol]
    testmemoryallocator.o(.text._ZN19TestMemoryAllocatorD2Ev) refers to testmemoryallocator.o(.rodata._ZTV19TestMemoryAllocator) for vtable for TestMemoryAllocator
    testmemoryallocator.o(.ARM.exidx.text._ZN19TestMemoryAllocatorD2Ev) refers to testmemoryallocator.o(.text._ZN19TestMemoryAllocatorD2Ev) for [Anonymous Symbol]
    testmemoryallocator.o(.text._ZN19TestMemoryAllocatorD0Ev) refers to memoryleakwarningplugin.o(.text._ZdlPv) for operator delete (void*)
    testmemoryallocator.o(.ARM.exidx.text._ZN19TestMemoryAllocatorD0Ev) refers to testmemoryallocator.o(.text._ZN19TestMemoryAllocatorD0Ev) for [Anonymous Symbol]
    testmemoryallocator.o(.ARM.exidx.text._ZN19TestMemoryAllocator16hasBeenDestroyedEv) refers to testmemoryallocator.o(.text._ZN19TestMemoryAllocator16hasBeenDestroyedEv) for [Anonymous Symbol]
    testmemoryallocator.o(.text._ZN19TestMemoryAllocator13isOfEqualTypeEPS_) refers to simplestring.o(.text._ZN12SimpleString6StrCmpEPKcS1_) for SimpleString::StrCmp(const char*, const char*)
    testmemoryallocator.o(.ARM.exidx.text._ZN19TestMemoryAllocator13isOfEqualTypeEPS_) refers to testmemoryallocator.o(.text._ZN19TestMemoryAllocator13isOfEqualTypeEPS_) for [Anonymous Symbol]
    testmemoryallocator.o(.text._ZN19TestMemoryAllocator19allocMemoryLeakNodeEj) refers to testmemoryallocator.o(.rodata.str1.1) for .L.str.9
    testmemoryallocator.o(.ARM.exidx.text._ZN19TestMemoryAllocator19allocMemoryLeakNodeEj) refers to testmemoryallocator.o(.text._ZN19TestMemoryAllocator19allocMemoryLeakNodeEj) for [Anonymous Symbol]
    testmemoryallocator.o(.text._ZN19TestMemoryAllocator18freeMemoryLeakNodeEPc) refers to testmemoryallocator.o(.rodata.str1.1) for .L.str.9
    testmemoryallocator.o(.ARM.exidx.text._ZN19TestMemoryAllocator18freeMemoryLeakNodeEPc) refers to testmemoryallocator.o(.text._ZN19TestMemoryAllocator18freeMemoryLeakNodeEPc) for [Anonymous Symbol]
    testmemoryallocator.o(.text._ZN19TestMemoryAllocator12alloc_memoryEjPKcj) refers to utest.o(.text._ZN10UtestShell10getCurrentEv) for UtestShell::getCurrent()
    testmemoryallocator.o(.text._ZN19TestMemoryAllocator12alloc_memoryEjPKcj) refers to utest.o(.text._ZN10UtestShell24getCurrentTestTerminatorEv) for UtestShell::getCurrentTestTerminator()
    testmemoryallocator.o(.text._ZN19TestMemoryAllocator12alloc_memoryEjPKcj) refers to utestplatform.o(.data.PlatformSpecificMalloc) for PlatformSpecificMalloc
    testmemoryallocator.o(.text._ZN19TestMemoryAllocator12alloc_memoryEjPKcj) refers to testmemoryallocator.o(.rodata.str1.1) for .L.str.15
    testmemoryallocator.o(.ARM.exidx.text._ZN19TestMemoryAllocator12alloc_memoryEjPKcj) refers to testmemoryallocator.o(.text._ZN19TestMemoryAllocator12alloc_memoryEjPKcj) for [Anonymous Symbol]
    testmemoryallocator.o(.text._ZN19TestMemoryAllocator11free_memoryEPcjPKcj) refers to utestplatform.o(.data.PlatformSpecificFree) for PlatformSpecificFree
    testmemoryallocator.o(.ARM.exidx.text._ZN19TestMemoryAllocator11free_memoryEPcjPKcj) refers to testmemoryallocator.o(.text._ZN19TestMemoryAllocator11free_memoryEPcjPKcj) for [Anonymous Symbol]
    testmemoryallocator.o(.ARM.exidx.text._ZNK19TestMemoryAllocator4nameEv) refers to testmemoryallocator.o(.text._ZNK19TestMemoryAllocator4nameEv) for [Anonymous Symbol]
    testmemoryallocator.o(.ARM.exidx.text._ZNK19TestMemoryAllocator10alloc_nameEv) refers to testmemoryallocator.o(.text._ZNK19TestMemoryAllocator10alloc_nameEv) for [Anonymous Symbol]
    testmemoryallocator.o(.ARM.exidx.text._ZNK19TestMemoryAllocator9free_nameEv) refers to testmemoryallocator.o(.text._ZNK19TestMemoryAllocator9free_nameEv) for [Anonymous Symbol]
    testmemoryallocator.o(.ARM.exidx.text._ZN19TestMemoryAllocator15actualAllocatorEv) refers to testmemoryallocator.o(.text._ZN19TestMemoryAllocator15actualAllocatorEv) for [Anonymous Symbol]
    testmemoryallocator.o(.text._ZN19MemoryLeakAllocatorC2EP19TestMemoryAllocator) refers to testmemoryallocator.o(.rodata.str1.1) for .L.str.8
    testmemoryallocator.o(.text._ZN19MemoryLeakAllocatorC2EP19TestMemoryAllocator) refers to testmemoryallocator.o(.rodata._ZTV19MemoryLeakAllocator) for vtable for MemoryLeakAllocator
    testmemoryallocator.o(.ARM.exidx.text._ZN19MemoryLeakAllocatorC2EP19TestMemoryAllocator) refers to testmemoryallocator.o(.text._ZN19MemoryLeakAllocatorC2EP19TestMemoryAllocator) for [Anonymous Symbol]
    testmemoryallocator.o(.text._ZN19MemoryLeakAllocatorD0Ev) refers to memoryleakwarningplugin.o(.text._ZdlPv) for operator delete (void*)
    testmemoryallocator.o(.ARM.exidx.text._ZN19MemoryLeakAllocatorD0Ev) refers to testmemoryallocator.o(.text._ZN19MemoryLeakAllocatorD0Ev) for [Anonymous Symbol]
    testmemoryallocator.o(.text._ZN19MemoryLeakAllocator12alloc_memoryEjPKcj) refers to memoryleakwarningplugin.o(.text._ZN23MemoryLeakWarningPlugin17getGlobalDetectorEv) for MemoryLeakWarningPlugin::getGlobalDetector()
    testmemoryallocator.o(.text._ZN19MemoryLeakAllocator12alloc_memoryEjPKcj) refers to memoryleakdetector.o(.text._ZN18MemoryLeakDetector11allocMemoryEP19TestMemoryAllocatorjPKcjb) for MemoryLeakDetector::allocMemory(TestMemoryAllocator*, unsigned, const char*, unsigned, bool)
    testmemoryallocator.o(.ARM.exidx.text._ZN19MemoryLeakAllocator12alloc_memoryEjPKcj) refers to testmemoryallocator.o(.text._ZN19MemoryLeakAllocator12alloc_memoryEjPKcj) for [Anonymous Symbol]
    testmemoryallocator.o(.text._ZN19MemoryLeakAllocator11free_memoryEPcjPKcj) refers to memoryleakwarningplugin.o(.text._ZN23MemoryLeakWarningPlugin17getGlobalDetectorEv) for MemoryLeakWarningPlugin::getGlobalDetector()
    testmemoryallocator.o(.text._ZN19MemoryLeakAllocator11free_memoryEPcjPKcj) refers to memoryleakdetector.o(.text._ZN18MemoryLeakDetector13deallocMemoryEP19TestMemoryAllocatorPvPKcjb) for MemoryLeakDetector::deallocMemory(TestMemoryAllocator*, void*, const char*, unsigned, bool)
    testmemoryallocator.o(.ARM.exidx.text._ZN19MemoryLeakAllocator11free_memoryEPcjPKcj) refers to testmemoryallocator.o(.text._ZN19MemoryLeakAllocator11free_memoryEPcjPKcj) for [Anonymous Symbol]
    testmemoryallocator.o(.ARM.exidx.text._ZNK19MemoryLeakAllocator4nameEv) refers to testmemoryallocator.o(.text._ZNK19MemoryLeakAllocator4nameEv) for [Anonymous Symbol]
    testmemoryallocator.o(.ARM.exidx.text._ZNK19MemoryLeakAllocator10alloc_nameEv) refers to testmemoryallocator.o(.text._ZNK19MemoryLeakAllocator10alloc_nameEv) for [Anonymous Symbol]
    testmemoryallocator.o(.ARM.exidx.text._ZNK19MemoryLeakAllocator9free_nameEv) refers to testmemoryallocator.o(.text._ZNK19MemoryLeakAllocator9free_nameEv) for [Anonymous Symbol]
    testmemoryallocator.o(.ARM.exidx.text._ZN19MemoryLeakAllocator15actualAllocatorEv) refers to testmemoryallocator.o(.text._ZN19MemoryLeakAllocator15actualAllocatorEv) for [Anonymous Symbol]
    testmemoryallocator.o(.text._ZN26CrashOnAllocationAllocatorC2Ev) refers to testmemoryallocator.o(.rodata.str1.1) for .L.str.8
    testmemoryallocator.o(.text._ZN26CrashOnAllocationAllocatorC2Ev) refers to testmemoryallocator.o(.rodata._ZTV26CrashOnAllocationAllocator) for vtable for CrashOnAllocationAllocator
    testmemoryallocator.o(.ARM.exidx.text._ZN26CrashOnAllocationAllocatorC2Ev) refers to testmemoryallocator.o(.text._ZN26CrashOnAllocationAllocatorC2Ev) for [Anonymous Symbol]
    testmemoryallocator.o(.text._ZN26CrashOnAllocationAllocatorD0Ev) refers to memoryleakwarningplugin.o(.text._ZdlPv) for operator delete (void*)
    testmemoryallocator.o(.ARM.exidx.text._ZN26CrashOnAllocationAllocatorD0Ev) refers to testmemoryallocator.o(.text._ZN26CrashOnAllocationAllocatorD0Ev) for [Anonymous Symbol]
    testmemoryallocator.o(.ARM.exidx.text._ZN26CrashOnAllocationAllocator18setNumberToCrashOnEj) refers to testmemoryallocator.o(.text._ZN26CrashOnAllocationAllocator18setNumberToCrashOnEj) for [Anonymous Symbol]
    testmemoryallocator.o(.text._ZN26CrashOnAllocationAllocator12alloc_memoryEjPKcj) refers to memoryleakwarningplugin.o(.text._ZN23MemoryLeakWarningPlugin17getGlobalDetectorEv) for MemoryLeakWarningPlugin::getGlobalDetector()
    testmemoryallocator.o(.text._ZN26CrashOnAllocationAllocator12alloc_memoryEjPKcj) refers to memoryleakdetector.o(.text._ZN18MemoryLeakDetector26getCurrentAllocationNumberEv) for MemoryLeakDetector::getCurrentAllocationNumber()
    testmemoryallocator.o(.text._ZN26CrashOnAllocationAllocator12alloc_memoryEjPKcj) refers to utest.o(.text._ZN10UtestShell5crashEv) for UtestShell::crash()
    testmemoryallocator.o(.text._ZN26CrashOnAllocationAllocator12alloc_memoryEjPKcj) refers to testmemoryallocator.o(.text._ZN19TestMemoryAllocator12alloc_memoryEjPKcj) for TestMemoryAllocator::alloc_memory(unsigned, const char*, unsigned)
    testmemoryallocator.o(.ARM.exidx.text._ZN26CrashOnAllocationAllocator12alloc_memoryEjPKcj) refers to testmemoryallocator.o(.text._ZN26CrashOnAllocationAllocator12alloc_memoryEjPKcj) for [Anonymous Symbol]
    testmemoryallocator.o(.text._ZN20NullUnknownAllocatorD0Ev) refers to memoryleakwarningplugin.o(.text._ZdlPv) for operator delete (void*)
    testmemoryallocator.o(.ARM.exidx.text._ZN20NullUnknownAllocatorD0Ev) refers to testmemoryallocator.o(.text._ZN20NullUnknownAllocatorD0Ev) for [Anonymous Symbol]
    testmemoryallocator.o(.ARM.exidx.text._ZN20NullUnknownAllocator12alloc_memoryEjPKcj) refers to testmemoryallocator.o(.text._ZN20NullUnknownAllocator12alloc_memoryEjPKcj) for [Anonymous Symbol]
    testmemoryallocator.o(.ARM.exidx.text._ZN20NullUnknownAllocator11free_memoryEPcjPKcj) refers to testmemoryallocator.o(.text._ZN20NullUnknownAllocator11free_memoryEPcjPKcj) for [Anonymous Symbol]
    testmemoryallocator.o(.text._ZN20NullUnknownAllocatorC2Ev) refers to testmemoryallocator.o(.rodata.str1.1) for .L.str.14
    testmemoryallocator.o(.text._ZN20NullUnknownAllocatorC2Ev) refers to testmemoryallocator.o(.rodata._ZTV20NullUnknownAllocator) for vtable for NullUnknownAllocator
    testmemoryallocator.o(.ARM.exidx.text._ZN20NullUnknownAllocatorC2Ev) refers to testmemoryallocator.o(.text._ZN20NullUnknownAllocatorC2Ev) for [Anonymous Symbol]
    testmemoryallocator.o(.text._ZN20NullUnknownAllocator16defaultAllocatorEv) refers to cxa_guard.cpp.o(.text.__cxa_guard_acquire) for __cxa_guard_acquire
    testmemoryallocator.o(.text._ZN20NullUnknownAllocator16defaultAllocatorEv) refers to cxa_atexit.o(.text) for __cxa_atexit
    testmemoryallocator.o(.text._ZN20NullUnknownAllocator16defaultAllocatorEv) refers to cxa_guard.cpp.o(.text.__cxa_guard_release) for __cxa_guard_release
    testmemoryallocator.o(.text._ZN20NullUnknownAllocator16defaultAllocatorEv) refers to testmemoryallocator.o(.bss..L_MergedGlobals) for [Anonymous Symbol]
    testmemoryallocator.o(.text._ZN20NullUnknownAllocator16defaultAllocatorEv) refers to testmemoryallocator.o(.rodata._ZTV20NullUnknownAllocator) for vtable for NullUnknownAllocator
    testmemoryallocator.o(.text._ZN20NullUnknownAllocator16defaultAllocatorEv) refers to testmemoryallocator.o(.rodata.str1.1) for .L.str.14
    testmemoryallocator.o(.text._ZN20NullUnknownAllocator16defaultAllocatorEv) refers to testmemoryallocator.o(.text._ZN19TestMemoryAllocatorD2Ev) for TestMemoryAllocator::~TestMemoryAllocator__sub_object()
    testmemoryallocator.o(.ARM.exidx.text._ZN20NullUnknownAllocator16defaultAllocatorEv) refers to testmemoryallocator.o(.text._ZN20NullUnknownAllocator16defaultAllocatorEv) for [Anonymous Symbol]
    testmemoryallocator.o(.text._ZN23FailableMemoryAllocatorD0Ev) refers to memoryleakwarningplugin.o(.text._ZdlPv) for operator delete (void*)
    testmemoryallocator.o(.ARM.exidx.text._ZN23FailableMemoryAllocatorD0Ev) refers to testmemoryallocator.o(.text._ZN23FailableMemoryAllocatorD0Ev) for [Anonymous Symbol]
    testmemoryallocator.o(.text._ZN23FailableMemoryAllocatorC2EPKcS1_S1_) refers to testmemoryallocator.o(.rodata._ZTV23FailableMemoryAllocator) for vtable for FailableMemoryAllocator
    testmemoryallocator.o(.ARM.exidx.text._ZN23FailableMemoryAllocatorC2EPKcS1_S1_) refers to testmemoryallocator.o(.text._ZN23FailableMemoryAllocatorC2EPKcS1_S1_) for [Anonymous Symbol]
    testmemoryallocator.o(.ARM.exidx.text._ZN23FailableMemoryAllocator15failAllocNumberEi) refers to testmemoryallocator.o(.text._ZN23FailableMemoryAllocator15failAllocNumberEi) for [Anonymous Symbol]
    testmemoryallocator.o(.ARM.exidx.text._ZN23FailableMemoryAllocator14failNthAllocAtEiPKcj) refers to testmemoryallocator.o(.text._ZN23FailableMemoryAllocator14failNthAllocAtEiPKcj) for [Anonymous Symbol]
    testmemoryallocator.o(.text._ZN23FailableMemoryAllocator12alloc_memoryEjPKcj) refers to testmemoryallocator.o(.text._ZN23LocationToFailAllocNode10shouldFailEiPKcj) for LocationToFailAllocNode::shouldFail(int, const char*, unsigned)
    testmemoryallocator.o(.text._ZN23FailableMemoryAllocator12alloc_memoryEjPKcj) refers to testmemoryallocator.o(.text._ZN19TestMemoryAllocator12alloc_memoryEjPKcj) for TestMemoryAllocator::alloc_memory(unsigned, const char*, unsigned)
    testmemoryallocator.o(.text._ZN23FailableMemoryAllocator12alloc_memoryEjPKcj) refers to testmemoryallocator.o(.rodata.str1.1) for .L.str.15
    testmemoryallocator.o(.ARM.exidx.text._ZN23FailableMemoryAllocator12alloc_memoryEjPKcj) refers to testmemoryallocator.o(.text._ZN23FailableMemoryAllocator12alloc_memoryEjPKcj) for [Anonymous Symbol]
    testmemoryallocator.o(.text._ZN23FailableMemoryAllocator19allocMemoryLeakNodeEj) refers to utestplatform.o(.data.PlatformSpecificMalloc) for PlatformSpecificMalloc
    testmemoryallocator.o(.ARM.exidx.text._ZN23FailableMemoryAllocator19allocMemoryLeakNodeEj) refers to testmemoryallocator.o(.text._ZN23FailableMemoryAllocator19allocMemoryLeakNodeEj) for [Anonymous Symbol]
    testmemoryallocator.o(.text._ZN23FailableMemoryAllocator28checkAllFailedAllocsWereDoneEv) refers to utest.o(.text._ZN10UtestShell10getCurrentEv) for UtestShell::getCurrent()
    testmemoryallocator.o(.text._ZN23FailableMemoryAllocator28checkAllFailedAllocsWereDoneEv) refers to simplestring.o(.text._ZN12SimpleStringC2EPKc) for SimpleString::SimpleString(const char*)
    testmemoryallocator.o(.text._ZN23FailableMemoryAllocator28checkAllFailedAllocsWereDoneEv) refers to simplestring.o(.text._Z16StringFromFormatPKcz) for StringFromFormat(const char*, ...)
    testmemoryallocator.o(.text._ZN23FailableMemoryAllocator28checkAllFailedAllocsWereDoneEv) refers to simplestring.o(.text._ZN12SimpleStringaSERKS_) for SimpleString::operator =(const SimpleString&)
    testmemoryallocator.o(.text._ZN23FailableMemoryAllocator28checkAllFailedAllocsWereDoneEv) refers to simplestring.o(.text._ZN12SimpleStringD2Ev) for SimpleString::~SimpleString()
    testmemoryallocator.o(.text._ZN23FailableMemoryAllocator28checkAllFailedAllocsWereDoneEv) refers to utest.o(.text._ZNK10UtestShell7getNameEv) for UtestShell::getName() const
    testmemoryallocator.o(.text._ZN23FailableMemoryAllocator28checkAllFailedAllocsWereDoneEv) refers to simplestring.o(.text._ZNK12SimpleString12asCharStringEv) for SimpleString::asCharString() const
    testmemoryallocator.o(.text._ZN23FailableMemoryAllocator28checkAllFailedAllocsWereDoneEv) refers to utest.o(.text._ZNK10UtestShell13getLineNumberEv) for UtestShell::getLineNumber() const
    testmemoryallocator.o(.text._ZN23FailableMemoryAllocator28checkAllFailedAllocsWereDoneEv) refers to testfailure.o(.text._ZN11FailFailureC2EP10UtestShellPKcjRK12SimpleString) for FailFailure::FailFailure(UtestShell*, const char*, unsigned, const SimpleString&)
    testmemoryallocator.o(.text._ZN23FailableMemoryAllocator28checkAllFailedAllocsWereDoneEv) refers to testfailure.o(.text._ZN11TestFailureD2Ev) for TestFailure::~TestFailure__sub_object()
    testmemoryallocator.o(.text._ZN23FailableMemoryAllocator28checkAllFailedAllocsWereDoneEv) refers to testmemoryallocator.o(.rodata.str1.1) for .L.str.16
    testmemoryallocator.o(.ARM.exidx.text._ZN23FailableMemoryAllocator28checkAllFailedAllocsWereDoneEv) refers to testmemoryallocator.o(.text._ZN23FailableMemoryAllocator28checkAllFailedAllocsWereDoneEv) for [Anonymous Symbol]
    testmemoryallocator.o(.text._ZN23FailableMemoryAllocator17clearFailedAllocsEv) refers to testmemoryallocator.o(.rodata.str1.1) for .L.str.15
    testmemoryallocator.o(.ARM.exidx.text._ZN23FailableMemoryAllocator17clearFailedAllocsEv) refers to testmemoryallocator.o(.text._ZN23FailableMemoryAllocator17clearFailedAllocsEv) for [Anonymous Symbol]
    testmemoryallocator.o(.text._ZNK16MemoryAccountant33createNewAccountantAllocationNodeEjP30MemoryAccountantAllocationNode) refers to testmemoryallocator.o(.rodata.str1.1) for .L.str.15
    testmemoryallocator.o(.ARM.exidx.text._ZNK16MemoryAccountant33createNewAccountantAllocationNodeEjP30MemoryAccountantAllocationNode) refers to testmemoryallocator.o(.text._ZNK16MemoryAccountant33createNewAccountantAllocationNodeEjP30MemoryAccountantAllocationNode) for [Anonymous Symbol]
    testmemoryallocator.o(.text._ZNK16MemoryAccountant31destroyAccountantAllocationNodeEP30MemoryAccountantAllocationNode) refers to testmemoryallocator.o(.rodata.str1.1) for .L.str.15
    testmemoryallocator.o(.ARM.exidx.text._ZNK16MemoryAccountant31destroyAccountantAllocationNodeEP30MemoryAccountantAllocationNode) refers to testmemoryallocator.o(.text._ZNK16MemoryAccountant31destroyAccountantAllocationNodeEP30MemoryAccountantAllocationNode) for [Anonymous Symbol]
    testmemoryallocator.o(.text._ZN16MemoryAccountantC2Ev) refers to testmemoryallocator.o(.text._Z22defaultMallocAllocatorv) for defaultMallocAllocator()
    testmemoryallocator.o(.text._ZN16MemoryAccountantC2Ev) refers to testmemoryallocator.o(.bss..L_MergedGlobals) for [Anonymous Symbol]
    testmemoryallocator.o(.ARM.exidx.text._ZN16MemoryAccountantC2Ev) refers to testmemoryallocator.o(.text._ZN16MemoryAccountantC2Ev) for [Anonymous Symbol]
    testmemoryallocator.o(.text._ZN16MemoryAccountantD2Ev) refers to testmemoryallocator.o(.text._ZN16MemoryAccountant5clearEv) for MemoryAccountant::clear()
    testmemoryallocator.o(.ARM.exidx.text._ZN16MemoryAccountantD2Ev) refers to testmemoryallocator.o(.text._ZN16MemoryAccountantD2Ev) for [Anonymous Symbol]
    testmemoryallocator.o(.text._ZN16MemoryAccountant5clearEv) refers to testmemoryallocator.o(.text._ZNK16MemoryAccountant31destroyAccountantAllocationNodeEP30MemoryAccountantAllocationNode) for MemoryAccountant::destroyAccountantAllocationNode(MemoryAccountantAllocationNode*) const
    testmemoryallocator.o(.ARM.exidx.text._ZN16MemoryAccountant5clearEv) refers to testmemoryallocator.o(.text._ZN16MemoryAccountant5clearEv) for [Anonymous Symbol]
    testmemoryallocator.o(.text._ZN16MemoryAccountant20createCacheSizeNodesEPjj) refers to testmemoryallocator.o(.text._ZN16MemoryAccountant22findOrCreateNodeOfSizeEj) for MemoryAccountant::findOrCreateNodeOfSize(unsigned)
    testmemoryallocator.o(.text._ZN16MemoryAccountant20createCacheSizeNodesEPjj) refers to testmemoryallocator.o(.text._ZNK16MemoryAccountant33createNewAccountantAllocationNodeEjP30MemoryAccountantAllocationNode) for MemoryAccountant::createNewAccountantAllocationNode(unsigned, MemoryAccountantAllocationNode*) const
    testmemoryallocator.o(.ARM.exidx.text._ZN16MemoryAccountant20createCacheSizeNodesEPjj) refers to testmemoryallocator.o(.text._ZN16MemoryAccountant20createCacheSizeNodesEPjj) for [Anonymous Symbol]
    testmemoryallocator.o(.text._ZN16MemoryAccountant22findOrCreateNodeOfSizeEj) refers to testmemoryallocator.o(.text._ZNK16MemoryAccountant14findNodeOfSizeEj) for MemoryAccountant::findNodeOfSize(unsigned) const
    testmemoryallocator.o(.text._ZN16MemoryAccountant22findOrCreateNodeOfSizeEj) refers to testmemoryallocator.o(.text._ZNK16MemoryAccountant33createNewAccountantAllocationNodeEjP30MemoryAccountantAllocationNode) for MemoryAccountant::createNewAccountantAllocationNode(unsigned, MemoryAccountantAllocationNode*) const
    testmemoryallocator.o(.ARM.exidx.text._ZN16MemoryAccountant22findOrCreateNodeOfSizeEj) refers to testmemoryallocator.o(.text._ZN16MemoryAccountant22findOrCreateNodeOfSizeEj) for [Anonymous Symbol]
    testmemoryallocator.o(.text._ZN16MemoryAccountant13useCacheSizesEPjj) refers to utest.o(.text._ZN10UtestShell10getCurrentEv) for UtestShell::getCurrent()
    testmemoryallocator.o(.text._ZN16MemoryAccountant13useCacheSizesEPjj) refers to utest.o(.text._ZN10UtestShell24getCurrentTestTerminatorEv) for UtestShell::getCurrentTestTerminator()
    testmemoryallocator.o(.text._ZN16MemoryAccountant13useCacheSizesEPjj) refers to testmemoryallocator.o(.text._ZN16MemoryAccountant20createCacheSizeNodesEPjj) for MemoryAccountant::createCacheSizeNodes(unsigned*, unsigned)
    testmemoryallocator.o(.text._ZN16MemoryAccountant13useCacheSizesEPjj) refers to testmemoryallocator.o(.rodata.str1.1) for .L.str.19
    testmemoryallocator.o(.ARM.exidx.text._ZN16MemoryAccountant13useCacheSizesEPjj) refers to testmemoryallocator.o(.text._ZN16MemoryAccountant13useCacheSizesEPjj) for [Anonymous Symbol]
    testmemoryallocator.o(.ARM.exidx.text._ZN16MemoryAccountant12setAllocatorEP19TestMemoryAllocator) refers to testmemoryallocator.o(.text._ZN16MemoryAccountant12setAllocatorEP19TestMemoryAllocator) for [Anonymous Symbol]
    testmemoryallocator.o(.ARM.exidx.text._ZNK16MemoryAccountant14findNodeOfSizeEj) refers to testmemoryallocator.o(.text._ZNK16MemoryAccountant14findNodeOfSizeEj) for [Anonymous Symbol]
    testmemoryallocator.o(.text._ZN16MemoryAccountant5allocEj) refers to testmemoryallocator.o(.text._ZN16MemoryAccountant22findOrCreateNodeOfSizeEj) for MemoryAccountant::findOrCreateNodeOfSize(unsigned)
    testmemoryallocator.o(.ARM.exidx.text._ZN16MemoryAccountant5allocEj) refers to testmemoryallocator.o(.text._ZN16MemoryAccountant5allocEj) for [Anonymous Symbol]
    testmemoryallocator.o(.text._ZN16MemoryAccountant7deallocEj) refers to testmemoryallocator.o(.text._ZN16MemoryAccountant22findOrCreateNodeOfSizeEj) for MemoryAccountant::findOrCreateNodeOfSize(unsigned)
    testmemoryallocator.o(.ARM.exidx.text._ZN16MemoryAccountant7deallocEj) refers to testmemoryallocator.o(.text._ZN16MemoryAccountant7deallocEj) for [Anonymous Symbol]
    testmemoryallocator.o(.text._ZNK16MemoryAccountant22totalAllocationsOfSizeEj) refers to testmemoryallocator.o(.text._ZNK16MemoryAccountant14findNodeOfSizeEj) for MemoryAccountant::findNodeOfSize(unsigned) const
    testmemoryallocator.o(.ARM.exidx.text._ZNK16MemoryAccountant22totalAllocationsOfSizeEj) refers to testmemoryallocator.o(.text._ZNK16MemoryAccountant22totalAllocationsOfSizeEj) for [Anonymous Symbol]
    testmemoryallocator.o(.text._ZNK16MemoryAccountant24totalDeallocationsOfSizeEj) refers to testmemoryallocator.o(.text._ZNK16MemoryAccountant14findNodeOfSizeEj) for MemoryAccountant::findNodeOfSize(unsigned) const
    testmemoryallocator.o(.ARM.exidx.text._ZNK16MemoryAccountant24totalDeallocationsOfSizeEj) refers to testmemoryallocator.o(.text._ZNK16MemoryAccountant24totalDeallocationsOfSizeEj) for [Anonymous Symbol]
    testmemoryallocator.o(.text._ZNK16MemoryAccountant30maximumAllocationAtATimeOfSizeEj) refers to testmemoryallocator.o(.text._ZNK16MemoryAccountant14findNodeOfSizeEj) for MemoryAccountant::findNodeOfSize(unsigned) const
    testmemoryallocator.o(.ARM.exidx.text._ZNK16MemoryAccountant30maximumAllocationAtATimeOfSizeEj) refers to testmemoryallocator.o(.text._ZNK16MemoryAccountant30maximumAllocationAtATimeOfSizeEj) for [Anonymous Symbol]
    testmemoryallocator.o(.ARM.exidx.text._ZNK16MemoryAccountant16totalAllocationsEv) refers to testmemoryallocator.o(.text._ZNK16MemoryAccountant16totalAllocationsEv) for [Anonymous Symbol]
    testmemoryallocator.o(.ARM.exidx.text._ZNK16MemoryAccountant18totalDeallocationsEv) refers to testmemoryallocator.o(.text._ZNK16MemoryAccountant18totalDeallocationsEv) for [Anonymous Symbol]
    testmemoryallocator.o(.text._ZNK16MemoryAccountant19reportNoAllocationsEv) refers to simplestring.o(.text._ZN12SimpleStringC2EPKc) for SimpleString::SimpleString(const char*)
    testmemoryallocator.o(.text._ZNK16MemoryAccountant19reportNoAllocationsEv) refers to testmemoryallocator.o(.rodata.str1.1) for .L.str.20
    testmemoryallocator.o(.ARM.exidx.text._ZNK16MemoryAccountant19reportNoAllocationsEv) refers to testmemoryallocator.o(.text._ZNK16MemoryAccountant19reportNoAllocationsEv) for [Anonymous Symbol]
    testmemoryallocator.o(.text._ZNK16MemoryAccountant11reportTitleEv) refers to simplestring.o(.text._ZN12SimpleStringC2EPKc) for SimpleString::SimpleString(const char*)
    testmemoryallocator.o(.ARM.exidx.text._ZNK16MemoryAccountant11reportTitleEv) refers to testmemoryallocator.o(.text._ZNK16MemoryAccountant11reportTitleEv) for [Anonymous Symbol]
    testmemoryallocator.o(.text._ZNK16MemoryAccountant12reportHeaderEv) refers to simplestring.o(.text._ZN12SimpleStringC2EPKc) for SimpleString::SimpleString(const char*)
    testmemoryallocator.o(.text._ZNK16MemoryAccountant12reportHeaderEv) refers to testmemoryallocator.o(.rodata.str1.1) for .L.str.24
    testmemoryallocator.o(.ARM.exidx.text._ZNK16MemoryAccountant12reportHeaderEv) refers to testmemoryallocator.o(.text._ZNK16MemoryAccountant12reportHeaderEv) for [Anonymous Symbol]
    testmemoryallocator.o(.text._ZNK16MemoryAccountant12reportFooterEv) refers to simplestring.o(.text._ZN12SimpleStringC2EPKc) for SimpleString::SimpleString(const char*)
    testmemoryallocator.o(.text._ZNK16MemoryAccountant12reportFooterEv) refers to testmemoryallocator.o(.rodata.str1.1) for .L.str.25
    testmemoryallocator.o(.ARM.exidx.text._ZNK16MemoryAccountant12reportFooterEv) refers to testmemoryallocator.o(.text._ZNK16MemoryAccountant12reportFooterEv) for [Anonymous Symbol]
    testmemoryallocator.o(.text._ZNK16MemoryAccountant10stringSizeEj) refers to simplestring.o(.text._Z16StringFromFormatPKcz) for StringFromFormat(const char*, ...)
    testmemoryallocator.o(.text._ZNK16MemoryAccountant10stringSizeEj) refers to simplestring.o(.text._Z10StringFromPKc) for StringFrom(const char*)
    testmemoryallocator.o(.ARM.exidx.text._ZNK16MemoryAccountant10stringSizeEj) refers to testmemoryallocator.o(.text._ZNK16MemoryAccountant10stringSizeEj) for [Anonymous Symbol]
    testmemoryallocator.o(.text._ZNK16MemoryAccountant6reportEv) refers to testmemoryallocator.o(.text._ZNK16MemoryAccountant11reportTitleEv) for MemoryAccountant::reportTitle() const
    testmemoryallocator.o(.text._ZNK16MemoryAccountant6reportEv) refers to testmemoryallocator.o(.text._ZNK16MemoryAccountant12reportHeaderEv) for MemoryAccountant::reportHeader() const
    testmemoryallocator.o(.text._ZNK16MemoryAccountant6reportEv) refers to simplestring.o(.text._ZNK12SimpleStringplERKS_) for SimpleString::operator +(const SimpleString&) const
    testmemoryallocator.o(.text._ZNK16MemoryAccountant6reportEv) refers to simplestring.o(.text._ZN12SimpleStringD2Ev) for SimpleString::~SimpleString()
    testmemoryallocator.o(.text._ZNK16MemoryAccountant6reportEv) refers to testmemoryallocator.o(.text._ZNK16MemoryAccountant10stringSizeEj) for MemoryAccountant::stringSize(unsigned) const
    testmemoryallocator.o(.text._ZNK16MemoryAccountant6reportEv) refers to simplestring.o(.text._ZNK12SimpleString12asCharStringEv) for SimpleString::asCharString() const
    testmemoryallocator.o(.text._ZNK16MemoryAccountant6reportEv) refers to simplestring.o(.text._Z16StringFromFormatPKcz) for StringFromFormat(const char*, ...)
    testmemoryallocator.o(.text._ZNK16MemoryAccountant6reportEv) refers to simplestring.o(.text._ZN12SimpleStringpLERKS_) for SimpleString::operator +=(const SimpleString&)
    testmemoryallocator.o(.text._ZNK16MemoryAccountant6reportEv) refers to simplestring.o(.text._ZN12SimpleStringC2EPKc) for SimpleString::SimpleString(const char*)
    testmemoryallocator.o(.text._ZNK16MemoryAccountant6reportEv) refers to testmemoryallocator.o(.rodata.str1.1) for .L.str.25
    testmemoryallocator.o(.ARM.exidx.text._ZNK16MemoryAccountant6reportEv) refers to testmemoryallocator.o(.text._ZNK16MemoryAccountant6reportEv) for [Anonymous Symbol]
    testmemoryallocator.o(.text._ZN29AccountingTestMemoryAllocatorC2ER16MemoryAccountantP19TestMemoryAllocator) refers to testmemoryallocator.o(.rodata.str1.1) for .L.str.8
    testmemoryallocator.o(.text._ZN29AccountingTestMemoryAllocatorC2ER16MemoryAccountantP19TestMemoryAllocator) refers to testmemoryallocator.o(.rodata._ZTV29AccountingTestMemoryAllocator) for vtable for AccountingTestMemoryAllocator
    testmemoryallocator.o(.ARM.exidx.text._ZN29AccountingTestMemoryAllocatorC2ER16MemoryAccountantP19TestMemoryAllocator) refers to testmemoryallocator.o(.text._ZN29AccountingTestMemoryAllocatorC2ER16MemoryAccountantP19TestMemoryAllocator) for [Anonymous Symbol]
    testmemoryallocator.o(.text._ZN29AccountingTestMemoryAllocatorD0Ev) refers to memoryleakwarningplugin.o(.text._ZdlPv) for operator delete (void*)
    testmemoryallocator.o(.ARM.exidx.text._ZN29AccountingTestMemoryAllocatorD0Ev) refers to testmemoryallocator.o(.text._ZN29AccountingTestMemoryAllocatorD0Ev) for [Anonymous Symbol]
    testmemoryallocator.o(.text._ZN29AccountingTestMemoryAllocator42addMemoryToMemoryTrackingToKeepTrackOfSizeEPcj) refers to testmemoryallocator.o(.rodata.str1.1) for .L.str.15
    testmemoryallocator.o(.ARM.exidx.text._ZN29AccountingTestMemoryAllocator42addMemoryToMemoryTrackingToKeepTrackOfSizeEPcj) refers to testmemoryallocator.o(.text._ZN29AccountingTestMemoryAllocator42addMemoryToMemoryTrackingToKeepTrackOfSizeEPcj) for [Anonymous Symbol]
    testmemoryallocator.o(.text._ZN29AccountingTestMemoryAllocator27removeNextNodeAndReturnSizeEP39AccountingTestMemoryAllocatorMemoryNode) refers to testmemoryallocator.o(.rodata.str1.1) for .L.str.15
    testmemoryallocator.o(.ARM.exidx.text._ZN29AccountingTestMemoryAllocator27removeNextNodeAndReturnSizeEP39AccountingTestMemoryAllocatorMemoryNode) refers to testmemoryallocator.o(.text._ZN29AccountingTestMemoryAllocator27removeNextNodeAndReturnSizeEP39AccountingTestMemoryAllocatorMemoryNode) for [Anonymous Symbol]
    testmemoryallocator.o(.text._ZN29AccountingTestMemoryAllocator23removeHeadAndReturnSizeEv) refers to testmemoryallocator.o(.rodata.str1.1) for .L.str.15
    testmemoryallocator.o(.ARM.exidx.text._ZN29AccountingTestMemoryAllocator23removeHeadAndReturnSizeEv) refers to testmemoryallocator.o(.text._ZN29AccountingTestMemoryAllocator23removeHeadAndReturnSizeEv) for [Anonymous Symbol]
    testmemoryallocator.o(.text._ZN29AccountingTestMemoryAllocator46removeMemoryFromTrackingAndReturnAllocatedSizeEPc) refers to testmemoryallocator.o(.text._ZN29AccountingTestMemoryAllocator27removeNextNodeAndReturnSizeEP39AccountingTestMemoryAllocatorMemoryNode) for AccountingTestMemoryAllocator::removeNextNodeAndReturnSize(AccountingTestMemoryAllocatorMemoryNode*)
    testmemoryallocator.o(.text._ZN29AccountingTestMemoryAllocator46removeMemoryFromTrackingAndReturnAllocatedSizeEPc) refers to testmemoryallocator.o(.text._ZN29AccountingTestMemoryAllocator23removeHeadAndReturnSizeEv) for AccountingTestMemoryAllocator::removeHeadAndReturnSize()
    testmemoryallocator.o(.ARM.exidx.text._ZN29AccountingTestMemoryAllocator46removeMemoryFromTrackingAndReturnAllocatedSizeEPc) refers to testmemoryallocator.o(.text._ZN29AccountingTestMemoryAllocator46removeMemoryFromTrackingAndReturnAllocatedSizeEPc) for [Anonymous Symbol]
    testmemoryallocator.o(.text._ZN29AccountingTestMemoryAllocator12alloc_memoryEjPKcj) refers to testmemoryallocator.o(.text._ZN16MemoryAccountant5allocEj) for MemoryAccountant::alloc(unsigned)
    testmemoryallocator.o(.text._ZN29AccountingTestMemoryAllocator12alloc_memoryEjPKcj) refers to testmemoryallocator.o(.text._ZN29AccountingTestMemoryAllocator42addMemoryToMemoryTrackingToKeepTrackOfSizeEPcj) for AccountingTestMemoryAllocator::addMemoryToMemoryTrackingToKeepTrackOfSize(char*, unsigned)
    testmemoryallocator.o(.ARM.exidx.text._ZN29AccountingTestMemoryAllocator12alloc_memoryEjPKcj) refers to testmemoryallocator.o(.text._ZN29AccountingTestMemoryAllocator12alloc_memoryEjPKcj) for [Anonymous Symbol]
    testmemoryallocator.o(.text._ZN29AccountingTestMemoryAllocator11free_memoryEPcjPKcj) refers to testmemoryallocator.o(.text._ZN29AccountingTestMemoryAllocator46removeMemoryFromTrackingAndReturnAllocatedSizeEPc) for AccountingTestMemoryAllocator::removeMemoryFromTrackingAndReturnAllocatedSize(char*)
    testmemoryallocator.o(.text._ZN29AccountingTestMemoryAllocator11free_memoryEPcjPKcj) refers to testmemoryallocator.o(.text._ZN16MemoryAccountant7deallocEj) for MemoryAccountant::dealloc(unsigned)
    testmemoryallocator.o(.ARM.exidx.text._ZN29AccountingTestMemoryAllocator11free_memoryEPcjPKcj) refers to testmemoryallocator.o(.text._ZN29AccountingTestMemoryAllocator11free_memoryEPcjPKcj) for [Anonymous Symbol]
    testmemoryallocator.o(.ARM.exidx.text._ZN29AccountingTestMemoryAllocator15actualAllocatorEv) refers to testmemoryallocator.o(.text._ZN29AccountingTestMemoryAllocator15actualAllocatorEv) for [Anonymous Symbol]
    testmemoryallocator.o(.ARM.exidx.text._ZN29AccountingTestMemoryAllocator17originalAllocatorEv) refers to testmemoryallocator.o(.text._ZN29AccountingTestMemoryAllocator17originalAllocatorEv) for [Anonymous Symbol]
    testmemoryallocator.o(.ARM.exidx.text._ZNK29AccountingTestMemoryAllocator10alloc_nameEv) refers to testmemoryallocator.o(.text._ZNK29AccountingTestMemoryAllocator10alloc_nameEv) for [Anonymous Symbol]
    testmemoryallocator.o(.ARM.exidx.text._ZNK29AccountingTestMemoryAllocator9free_nameEv) refers to testmemoryallocator.o(.text._ZNK29AccountingTestMemoryAllocator9free_nameEv) for [Anonymous Symbol]
    testmemoryallocator.o(.text._ZN22GlobalMemoryAccountantC2Ev) refers to testmemoryallocator.o(.text._ZN16MemoryAccountantC2Ev) for MemoryAccountant::MemoryAccountant__sub_object()
    testmemoryallocator.o(.ARM.exidx.text._ZN22GlobalMemoryAccountantC2Ev) refers to testmemoryallocator.o(.text._ZN22GlobalMemoryAccountantC2Ev) for [Anonymous Symbol]
    testmemoryallocator.o(.text._ZN22GlobalMemoryAccountantD2Ev) refers to testmemoryallocator.o(.text._ZN22GlobalMemoryAccountant23restoreMemoryAllocatorsEv) for GlobalMemoryAccountant::restoreMemoryAllocators()
    testmemoryallocator.o(.text._ZN22GlobalMemoryAccountantD2Ev) refers to testmemoryallocator.o(.text._ZN16MemoryAccountant5clearEv) for MemoryAccountant::clear()
    testmemoryallocator.o(.ARM.exidx.text._ZN22GlobalMemoryAccountantD2Ev) refers to testmemoryallocator.o(.text._ZN22GlobalMemoryAccountantD2Ev) for [Anonymous Symbol]
    testmemoryallocator.o(.text._ZN22GlobalMemoryAccountant23restoreMemoryAllocatorsEv) refers to testmemoryallocator.o(.text._Z25getCurrentMallocAllocatorv) for getCurrentMallocAllocator()
    testmemoryallocator.o(.text._ZN22GlobalMemoryAccountant23restoreMemoryAllocatorsEv) refers to testmemoryallocator.o(.text._Z22getCurrentNewAllocatorv) for getCurrentNewAllocator()
    testmemoryallocator.o(.text._ZN22GlobalMemoryAccountant23restoreMemoryAllocatorsEv) refers to testmemoryallocator.o(.text._Z27getCurrentNewArrayAllocatorv) for getCurrentNewArrayAllocator()
    testmemoryallocator.o(.text._ZN22GlobalMemoryAccountant23restoreMemoryAllocatorsEv) refers to testmemoryallocator.o(.bss..L_MergedGlobals) for [Anonymous Symbol]
    testmemoryallocator.o(.ARM.exidx.text._ZN22GlobalMemoryAccountant23restoreMemoryAllocatorsEv) refers to testmemoryallocator.o(.text._ZN22GlobalMemoryAccountant23restoreMemoryAllocatorsEv) for [Anonymous Symbol]
    testmemoryallocator.o(.text._ZN22GlobalMemoryAccountant13useCacheSizesEPjj) refers to testmemoryallocator.o(.text._ZN16MemoryAccountant13useCacheSizesEPjj) for MemoryAccountant::useCacheSizes(unsigned*, unsigned)
    testmemoryallocator.o(.ARM.exidx.text._ZN22GlobalMemoryAccountant13useCacheSizesEPjj) refers to testmemoryallocator.o(.text._ZN22GlobalMemoryAccountant13useCacheSizesEPjj) for [Anonymous Symbol]
    testmemoryallocator.o(.text._ZN22GlobalMemoryAccountant5startEv) refers to utest.o(.text._ZN10UtestShell10getCurrentEv) for UtestShell::getCurrent()
    testmemoryallocator.o(.text._ZN22GlobalMemoryAccountant5startEv) refers to utest.o(.text._ZN10UtestShell24getCurrentTestTerminatorEv) for UtestShell::getCurrentTestTerminator()
    testmemoryallocator.o(.text._ZN22GlobalMemoryAccountant5startEv) refers to testmemoryallocator.o(.text._Z25getCurrentMallocAllocatorv) for getCurrentMallocAllocator()
    testmemoryallocator.o(.text._ZN22GlobalMemoryAccountant5startEv) refers to testmemoryallocator.o(.text._Z22getCurrentNewAllocatorv) for getCurrentNewAllocator()
    testmemoryallocator.o(.text._ZN22GlobalMemoryAccountant5startEv) refers to testmemoryallocator.o(.text._Z27getCurrentNewArrayAllocatorv) for getCurrentNewArrayAllocator()
    testmemoryallocator.o(.text._ZN22GlobalMemoryAccountant5startEv) refers to testmemoryallocator.o(.rodata.str1.1) for .L.str.15
    testmemoryallocator.o(.text._ZN22GlobalMemoryAccountant5startEv) refers to memoryleakwarningplugin.o(.text._ZnwjPKci) for operator new(unsigned, const char*, int)
    testmemoryallocator.o(.text._ZN22GlobalMemoryAccountant5startEv) refers to testmemoryallocator.o(.rodata._ZTV29AccountingTestMemoryAllocator) for vtable for AccountingTestMemoryAllocator
    testmemoryallocator.o(.text._ZN22GlobalMemoryAccountant5startEv) refers to testmemoryallocator.o(.bss..L_MergedGlobals) for [Anonymous Symbol]
    testmemoryallocator.o(.ARM.exidx.text._ZN22GlobalMemoryAccountant5startEv) refers to testmemoryallocator.o(.text._ZN22GlobalMemoryAccountant5startEv) for [Anonymous Symbol]
    testmemoryallocator.o(.text._ZN22GlobalMemoryAccountant4stopEv) refers to utest.o(.text._ZN10UtestShell10getCurrentEv) for UtestShell::getCurrent()
    testmemoryallocator.o(.text._ZN22GlobalMemoryAccountant4stopEv) refers to utest.o(.text._ZN10UtestShell24getCurrentTestTerminatorEv) for UtestShell::getCurrentTestTerminator()
    testmemoryallocator.o(.text._ZN22GlobalMemoryAccountant4stopEv) refers to testmemoryallocator.o(.text._Z25getCurrentMallocAllocatorv) for getCurrentMallocAllocator()
    testmemoryallocator.o(.text._ZN22GlobalMemoryAccountant4stopEv) refers to testmemoryallocator.o(.text._Z22getCurrentNewAllocatorv) for getCurrentNewAllocator()
    testmemoryallocator.o(.text._ZN22GlobalMemoryAccountant4stopEv) refers to testmemoryallocator.o(.text._Z27getCurrentNewArrayAllocatorv) for getCurrentNewArrayAllocator()
    testmemoryallocator.o(.text._ZN22GlobalMemoryAccountant4stopEv) refers to testmemoryallocator.o(.text._ZN22GlobalMemoryAccountant23restoreMemoryAllocatorsEv) for GlobalMemoryAccountant::restoreMemoryAllocators()
    testmemoryallocator.o(.text._ZN22GlobalMemoryAccountant4stopEv) refers to testmemoryallocator.o(.rodata.str1.1) for .L.str.15
    testmemoryallocator.o(.ARM.exidx.text._ZN22GlobalMemoryAccountant4stopEv) refers to testmemoryallocator.o(.text._ZN22GlobalMemoryAccountant4stopEv) for [Anonymous Symbol]
    testmemoryallocator.o(.text._ZN22GlobalMemoryAccountant6reportEv) refers to testmemoryallocator.o(.text._ZNK16MemoryAccountant6reportEv) for MemoryAccountant::report() const
    testmemoryallocator.o(.ARM.exidx.text._ZN22GlobalMemoryAccountant6reportEv) refers to testmemoryallocator.o(.text._ZN22GlobalMemoryAccountant6reportEv) for [Anonymous Symbol]
    testmemoryallocator.o(.ARM.exidx.text._ZN22GlobalMemoryAccountant18getMallocAllocatorEv) refers to testmemoryallocator.o(.text._ZN22GlobalMemoryAccountant18getMallocAllocatorEv) for [Anonymous Symbol]
    testmemoryallocator.o(.ARM.exidx.text._ZN22GlobalMemoryAccountant15getNewAllocatorEv) refers to testmemoryallocator.o(.text._ZN22GlobalMemoryAccountant15getNewAllocatorEv) for [Anonymous Symbol]
    testmemoryallocator.o(.ARM.exidx.text._ZN22GlobalMemoryAccountant20getNewArrayAllocatorEv) refers to testmemoryallocator.o(.text._ZN22GlobalMemoryAccountant20getNewArrayAllocatorEv) for [Anonymous Symbol]
    testmemoryallocator.o(.rodata._ZTV19TestMemoryAllocator) refers to testmemoryallocator.o(.rodata._ZTI19TestMemoryAllocator) for typeinfo for TestMemoryAllocator
    testmemoryallocator.o(.rodata._ZTV19TestMemoryAllocator) refers to testmemoryallocator.o(.text._ZN19TestMemoryAllocatorD2Ev) for TestMemoryAllocator::~TestMemoryAllocator__sub_object()
    testmemoryallocator.o(.rodata._ZTV19TestMemoryAllocator) refers to testmemoryallocator.o(.text._ZN19TestMemoryAllocatorD0Ev) for TestMemoryAllocator::~TestMemoryAllocator__deallocating()
    testmemoryallocator.o(.rodata._ZTV19TestMemoryAllocator) refers to testmemoryallocator.o(.text._ZN19TestMemoryAllocator12alloc_memoryEjPKcj) for TestMemoryAllocator::alloc_memory(unsigned, const char*, unsigned)
    testmemoryallocator.o(.rodata._ZTV19TestMemoryAllocator) refers to testmemoryallocator.o(.text._ZN19TestMemoryAllocator11free_memoryEPcjPKcj) for TestMemoryAllocator::free_memory(char*, unsigned, const char*, unsigned)
    testmemoryallocator.o(.rodata._ZTV19TestMemoryAllocator) refers to testmemoryallocator.o(.text._ZNK19TestMemoryAllocator4nameEv) for TestMemoryAllocator::name() const
    testmemoryallocator.o(.rodata._ZTV19TestMemoryAllocator) refers to testmemoryallocator.o(.text._ZNK19TestMemoryAllocator10alloc_nameEv) for TestMemoryAllocator::alloc_name() const
    testmemoryallocator.o(.rodata._ZTV19TestMemoryAllocator) refers to testmemoryallocator.o(.text._ZNK19TestMemoryAllocator9free_nameEv) for TestMemoryAllocator::free_name() const
    testmemoryallocator.o(.rodata._ZTV19TestMemoryAllocator) refers to testmemoryallocator.o(.text._ZN19TestMemoryAllocator13isOfEqualTypeEPS_) for TestMemoryAllocator::isOfEqualType(TestMemoryAllocator*)
    testmemoryallocator.o(.rodata._ZTV19TestMemoryAllocator) refers to testmemoryallocator.o(.text._ZN19TestMemoryAllocator19allocMemoryLeakNodeEj) for TestMemoryAllocator::allocMemoryLeakNode(unsigned)
    testmemoryallocator.o(.rodata._ZTV19TestMemoryAllocator) refers to testmemoryallocator.o(.text._ZN19TestMemoryAllocator18freeMemoryLeakNodeEPc) for TestMemoryAllocator::freeMemoryLeakNode(char*)
    testmemoryallocator.o(.rodata._ZTV19TestMemoryAllocator) refers to testmemoryallocator.o(.text._ZN19TestMemoryAllocator15actualAllocatorEv) for TestMemoryAllocator::actualAllocator()
    testmemoryallocator.o(.rodata._ZTV19MemoryLeakAllocator) refers to testmemoryallocator.o(.rodata._ZTI19MemoryLeakAllocator) for typeinfo for MemoryLeakAllocator
    testmemoryallocator.o(.rodata._ZTV19MemoryLeakAllocator) refers to testmemoryallocator.o(.text._ZN19TestMemoryAllocatorD2Ev) for TestMemoryAllocator::~TestMemoryAllocator__sub_object()
    testmemoryallocator.o(.rodata._ZTV19MemoryLeakAllocator) refers to testmemoryallocator.o(.text._ZN19MemoryLeakAllocatorD0Ev) for MemoryLeakAllocator::~MemoryLeakAllocator__deallocating()
    testmemoryallocator.o(.rodata._ZTV19MemoryLeakAllocator) refers to testmemoryallocator.o(.text._ZN19MemoryLeakAllocator12alloc_memoryEjPKcj) for MemoryLeakAllocator::alloc_memory(unsigned, const char*, unsigned)
    testmemoryallocator.o(.rodata._ZTV19MemoryLeakAllocator) refers to testmemoryallocator.o(.text._ZN19MemoryLeakAllocator11free_memoryEPcjPKcj) for MemoryLeakAllocator::free_memory(char*, unsigned, const char*, unsigned)
    testmemoryallocator.o(.rodata._ZTV19MemoryLeakAllocator) refers to testmemoryallocator.o(.text._ZNK19MemoryLeakAllocator4nameEv) for MemoryLeakAllocator::name() const
    testmemoryallocator.o(.rodata._ZTV19MemoryLeakAllocator) refers to testmemoryallocator.o(.text._ZNK19MemoryLeakAllocator10alloc_nameEv) for MemoryLeakAllocator::alloc_name() const
    testmemoryallocator.o(.rodata._ZTV19MemoryLeakAllocator) refers to testmemoryallocator.o(.text._ZNK19MemoryLeakAllocator9free_nameEv) for MemoryLeakAllocator::free_name() const
    testmemoryallocator.o(.rodata._ZTV19MemoryLeakAllocator) refers to testmemoryallocator.o(.text._ZN19TestMemoryAllocator13isOfEqualTypeEPS_) for TestMemoryAllocator::isOfEqualType(TestMemoryAllocator*)
    testmemoryallocator.o(.rodata._ZTV19MemoryLeakAllocator) refers to testmemoryallocator.o(.text._ZN19TestMemoryAllocator19allocMemoryLeakNodeEj) for TestMemoryAllocator::allocMemoryLeakNode(unsigned)
    testmemoryallocator.o(.rodata._ZTV19MemoryLeakAllocator) refers to testmemoryallocator.o(.text._ZN19TestMemoryAllocator18freeMemoryLeakNodeEPc) for TestMemoryAllocator::freeMemoryLeakNode(char*)
    testmemoryallocator.o(.rodata._ZTV19MemoryLeakAllocator) refers to testmemoryallocator.o(.text._ZN19MemoryLeakAllocator15actualAllocatorEv) for MemoryLeakAllocator::actualAllocator()
    testmemoryallocator.o(.rodata._ZTV26CrashOnAllocationAllocator) refers to testmemoryallocator.o(.rodata._ZTI26CrashOnAllocationAllocator) for typeinfo for CrashOnAllocationAllocator
    testmemoryallocator.o(.rodata._ZTV26CrashOnAllocationAllocator) refers to testmemoryallocator.o(.text._ZN19TestMemoryAllocatorD2Ev) for TestMemoryAllocator::~TestMemoryAllocator__sub_object()
    testmemoryallocator.o(.rodata._ZTV26CrashOnAllocationAllocator) refers to testmemoryallocator.o(.text._ZN26CrashOnAllocationAllocatorD0Ev) for CrashOnAllocationAllocator::~CrashOnAllocationAllocator__deallocating()
    testmemoryallocator.o(.rodata._ZTV26CrashOnAllocationAllocator) refers to testmemoryallocator.o(.text._ZN26CrashOnAllocationAllocator12alloc_memoryEjPKcj) for CrashOnAllocationAllocator::alloc_memory(unsigned, const char*, unsigned)
    testmemoryallocator.o(.rodata._ZTV26CrashOnAllocationAllocator) refers to testmemoryallocator.o(.text._ZN19TestMemoryAllocator11free_memoryEPcjPKcj) for TestMemoryAllocator::free_memory(char*, unsigned, const char*, unsigned)
    testmemoryallocator.o(.rodata._ZTV26CrashOnAllocationAllocator) refers to testmemoryallocator.o(.text._ZNK19TestMemoryAllocator4nameEv) for TestMemoryAllocator::name() const
    testmemoryallocator.o(.rodata._ZTV26CrashOnAllocationAllocator) refers to testmemoryallocator.o(.text._ZNK19TestMemoryAllocator10alloc_nameEv) for TestMemoryAllocator::alloc_name() const
    testmemoryallocator.o(.rodata._ZTV26CrashOnAllocationAllocator) refers to testmemoryallocator.o(.text._ZNK19TestMemoryAllocator9free_nameEv) for TestMemoryAllocator::free_name() const
    testmemoryallocator.o(.rodata._ZTV26CrashOnAllocationAllocator) refers to testmemoryallocator.o(.text._ZN19TestMemoryAllocator13isOfEqualTypeEPS_) for TestMemoryAllocator::isOfEqualType(TestMemoryAllocator*)
    testmemoryallocator.o(.rodata._ZTV26CrashOnAllocationAllocator) refers to testmemoryallocator.o(.text._ZN19TestMemoryAllocator19allocMemoryLeakNodeEj) for TestMemoryAllocator::allocMemoryLeakNode(unsigned)
    testmemoryallocator.o(.rodata._ZTV26CrashOnAllocationAllocator) refers to testmemoryallocator.o(.text._ZN19TestMemoryAllocator18freeMemoryLeakNodeEPc) for TestMemoryAllocator::freeMemoryLeakNode(char*)
    testmemoryallocator.o(.rodata._ZTV26CrashOnAllocationAllocator) refers to testmemoryallocator.o(.text._ZN19TestMemoryAllocator15actualAllocatorEv) for TestMemoryAllocator::actualAllocator()
    testmemoryallocator.o(.rodata._ZTV26CrashOnAllocationAllocator) refers to testmemoryallocator.o(.text._ZN26CrashOnAllocationAllocator18setNumberToCrashOnEj) for CrashOnAllocationAllocator::setNumberToCrashOn(unsigned)
    testmemoryallocator.o(.rodata._ZTV20NullUnknownAllocator) refers to testmemoryallocator.o(.rodata._ZTI20NullUnknownAllocator) for typeinfo for NullUnknownAllocator
    testmemoryallocator.o(.rodata._ZTV20NullUnknownAllocator) refers to testmemoryallocator.o(.text._ZN19TestMemoryAllocatorD2Ev) for TestMemoryAllocator::~TestMemoryAllocator__sub_object()
    testmemoryallocator.o(.rodata._ZTV20NullUnknownAllocator) refers to testmemoryallocator.o(.text._ZN20NullUnknownAllocatorD0Ev) for NullUnknownAllocator::~NullUnknownAllocator__deallocating()
    testmemoryallocator.o(.rodata._ZTV20NullUnknownAllocator) refers to testmemoryallocator.o(.text._ZN20NullUnknownAllocator12alloc_memoryEjPKcj) for NullUnknownAllocator::alloc_memory(unsigned, const char*, unsigned)
    testmemoryallocator.o(.rodata._ZTV20NullUnknownAllocator) refers to testmemoryallocator.o(.text._ZN20NullUnknownAllocator11free_memoryEPcjPKcj) for NullUnknownAllocator::free_memory(char*, unsigned, const char*, unsigned)
    testmemoryallocator.o(.rodata._ZTV20NullUnknownAllocator) refers to testmemoryallocator.o(.text._ZNK19TestMemoryAllocator4nameEv) for TestMemoryAllocator::name() const
    testmemoryallocator.o(.rodata._ZTV20NullUnknownAllocator) refers to testmemoryallocator.o(.text._ZNK19TestMemoryAllocator10alloc_nameEv) for TestMemoryAllocator::alloc_name() const
    testmemoryallocator.o(.rodata._ZTV20NullUnknownAllocator) refers to testmemoryallocator.o(.text._ZNK19TestMemoryAllocator9free_nameEv) for TestMemoryAllocator::free_name() const
    testmemoryallocator.o(.rodata._ZTV20NullUnknownAllocator) refers to testmemoryallocator.o(.text._ZN19TestMemoryAllocator13isOfEqualTypeEPS_) for TestMemoryAllocator::isOfEqualType(TestMemoryAllocator*)
    testmemoryallocator.o(.rodata._ZTV20NullUnknownAllocator) refers to testmemoryallocator.o(.text._ZN19TestMemoryAllocator19allocMemoryLeakNodeEj) for TestMemoryAllocator::allocMemoryLeakNode(unsigned)
    testmemoryallocator.o(.rodata._ZTV20NullUnknownAllocator) refers to testmemoryallocator.o(.text._ZN19TestMemoryAllocator18freeMemoryLeakNodeEPc) for TestMemoryAllocator::freeMemoryLeakNode(char*)
    testmemoryallocator.o(.rodata._ZTV20NullUnknownAllocator) refers to testmemoryallocator.o(.text._ZN19TestMemoryAllocator15actualAllocatorEv) for TestMemoryAllocator::actualAllocator()
    testmemoryallocator.o(.rodata._ZTV23FailableMemoryAllocator) refers to testmemoryallocator.o(.rodata._ZTI23FailableMemoryAllocator) for typeinfo for FailableMemoryAllocator
    testmemoryallocator.o(.rodata._ZTV23FailableMemoryAllocator) refers to testmemoryallocator.o(.text._ZN19TestMemoryAllocatorD2Ev) for TestMemoryAllocator::~TestMemoryAllocator__sub_object()
    testmemoryallocator.o(.rodata._ZTV23FailableMemoryAllocator) refers to testmemoryallocator.o(.text._ZN23FailableMemoryAllocatorD0Ev) for FailableMemoryAllocator::~FailableMemoryAllocator__deallocating()
    testmemoryallocator.o(.rodata._ZTV23FailableMemoryAllocator) refers to testmemoryallocator.o(.text._ZN23FailableMemoryAllocator12alloc_memoryEjPKcj) for FailableMemoryAllocator::alloc_memory(unsigned, const char*, unsigned)
    testmemoryallocator.o(.rodata._ZTV23FailableMemoryAllocator) refers to testmemoryallocator.o(.text._ZN19TestMemoryAllocator11free_memoryEPcjPKcj) for TestMemoryAllocator::free_memory(char*, unsigned, const char*, unsigned)
    testmemoryallocator.o(.rodata._ZTV23FailableMemoryAllocator) refers to testmemoryallocator.o(.text._ZNK19TestMemoryAllocator4nameEv) for TestMemoryAllocator::name() const
    testmemoryallocator.o(.rodata._ZTV23FailableMemoryAllocator) refers to testmemoryallocator.o(.text._ZNK19TestMemoryAllocator10alloc_nameEv) for TestMemoryAllocator::alloc_name() const
    testmemoryallocator.o(.rodata._ZTV23FailableMemoryAllocator) refers to testmemoryallocator.o(.text._ZNK19TestMemoryAllocator9free_nameEv) for TestMemoryAllocator::free_name() const
    testmemoryallocator.o(.rodata._ZTV23FailableMemoryAllocator) refers to testmemoryallocator.o(.text._ZN19TestMemoryAllocator13isOfEqualTypeEPS_) for TestMemoryAllocator::isOfEqualType(TestMemoryAllocator*)
    testmemoryallocator.o(.rodata._ZTV23FailableMemoryAllocator) refers to testmemoryallocator.o(.text._ZN23FailableMemoryAllocator19allocMemoryLeakNodeEj) for FailableMemoryAllocator::allocMemoryLeakNode(unsigned)
    testmemoryallocator.o(.rodata._ZTV23FailableMemoryAllocator) refers to testmemoryallocator.o(.text._ZN19TestMemoryAllocator18freeMemoryLeakNodeEPc) for TestMemoryAllocator::freeMemoryLeakNode(char*)
    testmemoryallocator.o(.rodata._ZTV23FailableMemoryAllocator) refers to testmemoryallocator.o(.text._ZN19TestMemoryAllocator15actualAllocatorEv) for TestMemoryAllocator::actualAllocator()
    testmemoryallocator.o(.rodata._ZTV23FailableMemoryAllocator) refers to testmemoryallocator.o(.text._ZN23FailableMemoryAllocator15failAllocNumberEi) for FailableMemoryAllocator::failAllocNumber(int)
    testmemoryallocator.o(.rodata._ZTV23FailableMemoryAllocator) refers to testmemoryallocator.o(.text._ZN23FailableMemoryAllocator14failNthAllocAtEiPKcj) for FailableMemoryAllocator::failNthAllocAt(int, const char*, unsigned)
    testmemoryallocator.o(.rodata._ZTV23FailableMemoryAllocator) refers to testmemoryallocator.o(.text._ZN23FailableMemoryAllocator28checkAllFailedAllocsWereDoneEv) for FailableMemoryAllocator::checkAllFailedAllocsWereDone()
    testmemoryallocator.o(.rodata._ZTV23FailableMemoryAllocator) refers to testmemoryallocator.o(.text._ZN23FailableMemoryAllocator17clearFailedAllocsEv) for FailableMemoryAllocator::clearFailedAllocs()
    testmemoryallocator.o(.rodata._ZTV29AccountingTestMemoryAllocator) refers to testmemoryallocator.o(.rodata._ZTI29AccountingTestMemoryAllocator) for typeinfo for AccountingTestMemoryAllocator
    testmemoryallocator.o(.rodata._ZTV29AccountingTestMemoryAllocator) refers to testmemoryallocator.o(.text._ZN19TestMemoryAllocatorD2Ev) for TestMemoryAllocator::~TestMemoryAllocator__sub_object()
    testmemoryallocator.o(.rodata._ZTV29AccountingTestMemoryAllocator) refers to testmemoryallocator.o(.text._ZN29AccountingTestMemoryAllocatorD0Ev) for AccountingTestMemoryAllocator::~AccountingTestMemoryAllocator__deallocating()
    testmemoryallocator.o(.rodata._ZTV29AccountingTestMemoryAllocator) refers to testmemoryallocator.o(.text._ZN29AccountingTestMemoryAllocator12alloc_memoryEjPKcj) for AccountingTestMemoryAllocator::alloc_memory(unsigned, const char*, unsigned)
    testmemoryallocator.o(.rodata._ZTV29AccountingTestMemoryAllocator) refers to testmemoryallocator.o(.text._ZN29AccountingTestMemoryAllocator11free_memoryEPcjPKcj) for AccountingTestMemoryAllocator::free_memory(char*, unsigned, const char*, unsigned)
    testmemoryallocator.o(.rodata._ZTV29AccountingTestMemoryAllocator) refers to testmemoryallocator.o(.text._ZNK19TestMemoryAllocator4nameEv) for TestMemoryAllocator::name() const
    testmemoryallocator.o(.rodata._ZTV29AccountingTestMemoryAllocator) refers to testmemoryallocator.o(.text._ZNK29AccountingTestMemoryAllocator10alloc_nameEv) for AccountingTestMemoryAllocator::alloc_name() const
    testmemoryallocator.o(.rodata._ZTV29AccountingTestMemoryAllocator) refers to testmemoryallocator.o(.text._ZNK29AccountingTestMemoryAllocator9free_nameEv) for AccountingTestMemoryAllocator::free_name() const
    testmemoryallocator.o(.rodata._ZTV29AccountingTestMemoryAllocator) refers to testmemoryallocator.o(.text._ZN19TestMemoryAllocator13isOfEqualTypeEPS_) for TestMemoryAllocator::isOfEqualType(TestMemoryAllocator*)
    testmemoryallocator.o(.rodata._ZTV29AccountingTestMemoryAllocator) refers to testmemoryallocator.o(.text._ZN19TestMemoryAllocator19allocMemoryLeakNodeEj) for TestMemoryAllocator::allocMemoryLeakNode(unsigned)
    testmemoryallocator.o(.rodata._ZTV29AccountingTestMemoryAllocator) refers to testmemoryallocator.o(.text._ZN19TestMemoryAllocator18freeMemoryLeakNodeEPc) for TestMemoryAllocator::freeMemoryLeakNode(char*)
    testmemoryallocator.o(.rodata._ZTV29AccountingTestMemoryAllocator) refers to testmemoryallocator.o(.text._ZN29AccountingTestMemoryAllocator15actualAllocatorEv) for AccountingTestMemoryAllocator::actualAllocator()
